

HI-TECH Software PIC LITE Macro Assembler V1.00 build 12136 
                                                                                               Wed Jun 27 13:00:16 2012

HI-TECH Software Omniscient Code Generator (Lite mode) build 12136
     1  0000                     opt subtitle "HI-TECH Software Omniscient Code Generator (Lite mode) build 12136"
     2                           
     3                           opt pagewidth 120
     4                           
     5                           	opt lm
     6                           
     7                           	processor	16F876A
     8                           clrc	macro
     9                           	bcf	3,0
    10  0000                     	endm
    11                           clrz	macro
    12                           	bcf	3,2
    13  0000                     	endm
    14                           setc	macro
    15                           	bsf	3,0
    16  0000                     	endm
    17                           setz	macro
    18                           	bsf	3,2
    19  0000                     	endm
    20                           skipc	macro
    21                           	btfss	3,0
    22  0000                     	endm
    23                           skipz	macro
    24                           	btfss	3,2
    25  0000                     	endm
    26                           skipnc	macro
    27                           	btfsc	3,0
    28  0000                     	endm
    29                           skipnz	macro
    30                           	btfsc	3,2
    31  0000                     	endm
    32  0000                     indf	equ	0
    33  0000                     indf0	equ	0
    34  0002                     pc	equ	2
    35  0002                     pcl	equ	2
    36  0003                     status	equ	3
    37  0004                     fsr	equ	4
    38  0004                     fsr0	equ	4
    39  0001                     c	equ	1
    40  0000                     z	equ	0
    41  000A                     pclath	equ	10
    42                           # 20 "PR8.c"
    43                           psect config,class=CONFIG,delta=2 ;# 
    44                           # 20 "PR8.c"
    45  2007  3F32               dw 0x3F32 ;# 
    46                           	FNCALL	_main,_send_config
    47                           	FNCALL	_main,_lcd_clr
    48                           	FNCALL	_main,_lcd_goto
    49                           	FNCALL	_main,_send_string
    50                           	FNCALL	_main,_beep
    51                           	FNCALL	_main,_delay
    52                           	FNCALL	_main,_uart_rec
    53                           	FNCALL	_main,_send_char
    54                           	FNCALL	_lcd_clr,_send_config
    55                           	FNCALL	_lcd_clr,_delay
    56                           	FNCALL	_lcd_goto,_send_config
    57                           	FNCALL	_send_config,_delay
    58                           	FNCALL	_send_string,_send_char
    59                           	FNCALL	_beep,_delay
    60                           	FNCALL	_send_char,_delay
    61                           	FNROOT	_main
    62                           	global	main@F1149
    63                           	global	main@F1151
    64                           	global	main@F1153
    65                           	global	main@F1155
    66                           psect	idataBANK0,class=CODE,space=0,delta=2
    67                           global __pidataBANK0
    68  042A                     __pidataBANK0:
    69                           	file	"PR8.c"
    70                           	line	62
    71                           
    72                           ;initializer for main@F1149
    73  042A  3430               	retlw	030h
    74  042B  3430               	retlw	030h
    75  042C  3430               	retlw	030h
    76  042D  3432               	retlw	032h
    77  042E  3433               	retlw	033h
    78  042F  3439               	retlw	039h
    79  0430  3433               	retlw	033h
    80  0431  3439               	retlw	039h
    81  0432  3432               	retlw	032h
    82  0433  3439               	retlw	039h
    83                           	line	63
    84                           
    85                           ;initializer for main@F1151
    86  0434  3430               	retlw	030h
    87  0435  3430               	retlw	030h
    88  0436  3430               	retlw	030h
    89  0437  3430               	retlw	030h
    90  0438  3437               	retlw	037h
    91  0439  3439               	retlw	039h
    92  043A  3437               	retlw	037h
    93  043B  3434               	retlw	034h
    94  043C  3434               	retlw	034h
    95  043D  3437               	retlw	037h
    96                           psect	idataBANK1,class=CODE,space=0,delta=2
    97                           global __pidataBANK1
    98  0416                     __pidataBANK1:
    99                           	line	65
   100                           
   101                           ;initializer for main@F1153
   102  0416  344A               	retlw	04Ah
   103  0417  346F               	retlw	06Fh
   104  0418  3473               	retlw	073h
   105  0419  3465               	retlw	065h
   106  041A  3470               	retlw	070h
   107  041B  3468               	retlw	068h
   108  041C  3420               	retlw	020h
   109  041D  3420               	retlw	020h
   110  041E  3420               	retlw	020h
   111  041F  3420               	retlw	020h
   112                           	line	66
   113                           
   114                           ;initializer for main@F1155
   115  0420  344D               	retlw	04Dh
   116  0421  3461               	retlw	061h
   117  0422  3472               	retlw	072h
   118  0423  3479               	retlw	079h
   119  0424  3420               	retlw	020h
   120  0425  3420               	retlw	020h
   121  0426  3420               	retlw	020h
   122  0427  3420               	retlw	020h
   123  0428  3420               	retlw	020h
   124  0429  3420               	retlw	020h
   125                           	global	_PORTB
   126  0006                     _PORTB	set	0x6
   127                           	global	_RCREG
   128  001A                     _RCREG	set	0x1A
   129                           	global	_CREN
   130  00C4                     _CREN	set	0xC4
   131                           	global	_RA2
   132  002A                     _RA2	set	0x2A
   133                           	global	_RA3
   134  002B                     _RA3	set	0x2B
   135                           	global	_RC0
   136  0038                     _RC0	set	0x38
   137                           	global	_RC1
   138  0039                     _RC1	set	0x39
   139                           	global	_RC2
   140  003A                     _RC2	set	0x3A
   141                           	global	_RC3
   142  003B                     _RC3	set	0x3B
   143                           	global	_RC4
   144  003C                     _RC4	set	0x3C
   145                           	global	_RCIF
   146  0065                     _RCIF	set	0x65
   147                           	global	_SPEN
   148  00C7                     _SPEN	set	0xC7
   149                           	global	_ADCON1
   150  009F                     _ADCON1	set	0x9F
   151                           	global	_SPBRG
   152  0099                     _SPBRG	set	0x99
   153                           	global	_TRISA
   154  0085                     _TRISA	set	0x85
   155                           	global	_TRISB
   156  0086                     _TRISB	set	0x86
   157                           	global	_TRISC
   158  0087                     _TRISC	set	0x87
   159                           	global	_BRGH
   160  04C2                     _BRGH	set	0x4C2
   161                           	global	_TXEN
   162  04C5                     _TXEN	set	0x4C5
   163                           psect	strings,class=STRING,delta=2
   164                           global __pstrings
   165  0003                     __pstrings:
   166                           ;	global	stringdir,stringtab,__stringbase
   167  0003                     stringtab:
   168                           ;	String table - string pointers are 1 byte each
   169  0003                     stringcode:stringdir:
      + 0003                     stringdir:	
   170  0003  3000               movlw high(stringdir)
   171  0004  008A               movwf pclath
   172  0005  0804               movf fsr,w
   173  0006  0A84               incf fsr
   174  0007  0782               	addwf pc
   175  0008                     __stringbase:
   176  0008  3400               	retlw	0
   177                           psect	strings
   178                           	
   179  0009                     STR_5:	
   180  0009  3450               	retlw	80	;'P'
   181  000A  3472               	retlw	114	;'r'
   182  000B  346F               	retlw	111	;'o'
   183  000C  3463               	retlw	99	;'c'
   184  000D  3465               	retlw	101	;'e'
   185  000E  3473               	retlw	115	;'s'
   186  000F  3473               	retlw	115	;'s'
   187  0010  3469               	retlw	105	;'i'
   188  0011  346E               	retlw	110	;'n'
   189  0012  3467               	retlw	103	;'g'
   190  0013  342E               	retlw	46	;'.'
   191  0014  342E               	retlw	46	;'.'
   192  0015  342E               	retlw	46	;'.'
   193  0016  342E               	retlw	46	;'.'
   194  0017  342E               	retlw	46	;'.'
   195  0018  342E               	retlw	46	;'.'
   196  0019  3400               	retlw	0
   197                           psect	strings
   198                           	
   199  001A                     STR_4:	
   200  001A  346F               	retlw	111	;'o'
   201  001B  346E               	retlw	110	;'n'
   202  001C  3420               	retlw	32	;' '
   203  001D  3474               	retlw	116	;'t'
   204  001E  3468               	retlw	104	;'h'
   205  001F  3465               	retlw	101	;'e'
   206  0020  3420               	retlw	32	;' '
   207  0021  3472               	retlw	114	;'r'
   208  0022  3465               	retlw	101	;'e'
   209  0023  3461               	retlw	97	;'a'
   210  0024  3464               	retlw	100	;'d'
   211  0025  3465               	retlw	101	;'e'
   212  0026  3472               	retlw	114	;'r'
   213  0027  342E               	retlw	46	;'.'
   214  0028  3400               	retlw	0
   215                           psect	strings
   216                           	
   217  0029                     STR_11:	
   218  0029  3475               	retlw	117	;'u'
   219  002A  3473               	retlw	115	;'s'
   220  002B  3465               	retlw	101	;'e'
   221  002C  3472               	retlw	114	;'r'
   222  002D  3420               	retlw	32	;' '
   223  002E  346E               	retlw	110	;'n'
   224  002F  346F               	retlw	111	;'o'
   225  0030  3474               	retlw	116	;'t'
   226  0031  3420               	retlw	32	;' '
   227  0032  3466               	retlw	102	;'f'
   228  0033  346F               	retlw	111	;'o'
   229  0034  3475               	retlw	117	;'u'
   230  0035  346E               	retlw	110	;'n'
   231  0036  3464               	retlw	100	;'d'
   232  0037  3400               	retlw	0
   233                           psect	strings
   234                           	
   235  0038                     STR_3:	
   236  0038  3450               	retlw	80	;'P'
   237  0039  346C               	retlw	108	;'l'
   238  003A  3461               	retlw	97	;'a'
   239  003B  3463               	retlw	99	;'c'
   240  003C  3465               	retlw	101	;'e'
   241  003D  3420               	retlw	32	;' '
   242  003E  3479               	retlw	121	;'y'
   243  003F  346F               	retlw	111	;'o'
   244  0040  3475               	retlw	117	;'u'
   245  0041  3472               	retlw	114	;'r'
   246  0042  3420               	retlw	32	;' '
   247  0043  3449               	retlw	73	;'I'
   248  0044  3444               	retlw	68	;'D'
   249  0045  3400               	retlw	0
   250                           psect	strings
   251                           	
   252  0046                     STR_1:	
   253  0046  3420               	retlw	32	;' '
   254  0047  3420               	retlw	32	;' '
   255  0048  3420               	retlw	32	;' '
   256  0049  3452               	retlw	82	;'R'
   257  004A  3446               	retlw	70	;'F'
   258  004B  3449               	retlw	73	;'I'
   259  004C  3444               	retlw	68	;'D'
   260  004D  3420               	retlw	32	;' '
   261  004E  3464               	retlw	100	;'d'
   262  004F  346F               	retlw	111	;'o'
   263  0050  346F               	retlw	111	;'o'
   264  0051  3472               	retlw	114	;'r'
   265  0052  3400               	retlw	0
   266                           psect	strings
   267                           	
   268  0053                     STR_2:	
   269  0053  3420               	retlw	32	;' '
   270  0054  3420               	retlw	32	;' '
   271  0055  3420               	retlw	32	;' '
   272  0056  3473               	retlw	115	;'s'
   273  0057  3465               	retlw	101	;'e'
   274  0058  3463               	retlw	99	;'c'
   275  0059  3475               	retlw	117	;'u'
   276  005A  3472               	retlw	114	;'r'
   277  005B  3469               	retlw	105	;'i'
   278  005C  3474               	retlw	116	;'t'
   279  005D  3479               	retlw	121	;'y'
   280  005E  3400               	retlw	0
   281                           psect	strings
   282                           	
   283  005F                     STR_7:	
   284  005F  3475               	retlw	117	;'u'
   285  0060  3473               	retlw	115	;'s'
   286  0061  3465               	retlw	101	;'e'
   287  0062  3472               	retlw	114	;'r'
   288  0063  343A               	retlw	58	;':'
   289  0064  3420               	retlw	32	;' '
   290  0065  3400               	retlw	0
   291                           psect	strings
   292                           	
   293  0066                     STR_8:	
   294  0066  3449               	retlw	73	;'I'
   295  0067  3444               	retlw	68	;'D'
   296  0068  343A               	retlw	58	;':'
   297  0069  3420               	retlw	32	;' '
   298  006A  3400               	retlw	0
   299                           psect	strings
   300                           	
   301  006B                     STR_6:	
   302  006B  3449               	retlw	73	;'I'
   303  006C  3444               	retlw	68	;'D'
   304  006D  343A               	retlw	58	;':'
   305  006E  3400               	retlw	0
   306                           psect	strings
   307  005F                     STR_9	equ	STR_7+0
   308  0066                     STR_10	equ	STR_8+0
   309                           	file	"C:\Users\HATAKE~1\AppData\Local\Temp\s1gmo."
   310                           	line	#
   311                           psect cinit,class=CODE,delta=2
   312                           global start_initialization
   313  045B                     start_initialization:
   314                           
   315                           psect	dataBANK0,class=BANK0,space=1
   316                           global __pdataBANK0
   317  005B                     __pdataBANK0:
   318                           	file	"PR8.c"
   319                           	line	62
   320  005B                     main@F1149:
   321  005B                            ds      10
   322                           
   323                           psect	dataBANK0
   324                           	file	"PR8.c"
   325                           	line	63
   326  0065                     main@F1151:
   327  0065                            ds      10
   328                           
   329                           psect	dataBANK1,class=BANK1,space=1
   330                           global __pdataBANK1
   331  00A0                     __pdataBANK1:
   332                           	file	"PR8.c"
   333                           	line	65
   334  00A0                     main@F1153:
   335  00A0                            ds      10
   336                           
   337                           psect	dataBANK1
   338                           	file	"PR8.c"
   339                           	line	66
   340  00AA                     main@F1155:
   341  00AA                            ds      10
   342                           
   343                           global btemp
   344                           psect inittext,class=CODE,delta=2
   345                           global init_fetch,btemp
   346                           ;	Called with low address in FSR and high address in W
   347  03EF                     init_fetch:
   348  03EF  087E               	movf btemp,w
   349  03F0  008A               	movwf pclath
   350  03F1  087F               	movf btemp+1,w
   351  03F2  0082               	movwf pc
   352                           global init_ram
   353                           ;Called with:
   354                           ;	high address of idata address in btemp 
   355                           ;	low address of idata address in btemp+1 
   356                           ;	low address of data in FSR
   357                           ;	high address + 1 of data in btemp-1
   358  03F3                     init_ram:
   359  03F3  120A  118A  23EF   	fcall init_fetch
              120A  118A         
   360  03F8  0080               	movwf indf,f
   361  03F9  0A84               	incf fsr,f
   362  03FA  0804               	movf fsr,w
   363  03FB  067D               	xorwf btemp-1,w
   364  03FC  1903               	btfsc status,2
   365  03FD  3400               	retlw 0
   366  03FE  0AFF               	incf btemp+1,f
   367  03FF  1903               	btfsc status,2
   368  0400  0AFE               	incf btemp,f
   369  0401  2BF3               	goto init_ram
   370                           ; Initialize objects allocated to BANK1
   371                           psect cinit,class=CODE,delta=2,merge=1
   372                           global init_ram, __pidataBANK1
   373  045B  1383               	bcf	status, 7	;select IRP bank0
   374  045C  30B4               	movlw low(__pdataBANK1+20)
   375  045D  00FD               	movwf btemp-1,f
   376  045E  3004               	movlw high(__pidataBANK1)
   377  045F  00FE               	movwf btemp,f
   378  0460  3016               	movlw low(__pidataBANK1)
   379  0461  00FF               	movwf btemp+1,f
   380  0462  30A0               	movlw low(__pdataBANK1)
   381  0463  0084               	movwf fsr,f
   382  0464  120A  118A  23F3   	fcall init_ram
              120A  118A         
   383                           ; Initialize objects allocated to BANK0
   384                           psect cinit,class=CODE,delta=2,merge=1
   385                           global init_ram, __pidataBANK0
   386  0469  306F               	movlw low(__pdataBANK0+20)
   387  046A  00FD               	movwf btemp-1,f
   388  046B  3004               	movlw high(__pidataBANK0)
   389  046C  00FE               	movwf btemp,f
   390  046D  302A               	movlw low(__pidataBANK0)
   391  046E  00FF               	movwf btemp+1,f
   392  046F  305B               	movlw low(__pdataBANK0)
   393  0470  0084               	movwf fsr,f
   394  0471  120A  118A  23F3   	fcall init_ram
              120A  118A         
   395                           psect cinit,class=CODE,delta=2,merge=1
   396                           global end_of_initialization
   397                           
   398                           ;End of C runtime variable initialization code
   399                           
   400  0476                     end_of_initialization:
   401  0476  0183               clrf status
   402  0477  120A  118A  2D3E   ljmp _main	;jump to C main() function
   403                           psect	cstackCOMMON,class=COMMON,space=1
   404                           global __pcstackCOMMON
   405  0070                     __pcstackCOMMON:
   406                           	global	?_send_config
   407  0070                     ?_send_config:	; 0 bytes @ 0x0
   408                           	global	?_lcd_clr
   409  0070                     ?_lcd_clr:	; 0 bytes @ 0x0
   410                           	global	?_lcd_goto
   411  0070                     ?_lcd_goto:	; 0 bytes @ 0x0
   412                           	global	?_send_string
   413  0070                     ?_send_string:	; 0 bytes @ 0x0
   414                           	global	?_beep
   415  0070                     ?_beep:	; 0 bytes @ 0x0
   416                           	global	?_delay
   417  0070                     ?_delay:	; 0 bytes @ 0x0
   418                           	global	??_uart_rec
   419  0070                     ??_uart_rec:	; 0 bytes @ 0x0
   420                           	global	?_send_char
   421  0070                     ?_send_char:	; 0 bytes @ 0x0
   422                           	global	?_main
   423  0070                     ?_main:	; 0 bytes @ 0x0
   424                           	global	?_uart_rec
   425  0070                     ?_uart_rec:	; 1 bytes @ 0x0
   426                           	global	delay@data
   427  0070                     delay@data:	; 4 bytes @ 0x0
   428  0070                     	ds	1
   429                           	global	uart_rec@rec_data
   430  0071                     uart_rec@rec_data:	; 1 bytes @ 0x1
   431  0071                     	ds	3
   432                           	global	??_delay
   433  0074                     ??_delay:	; 0 bytes @ 0x4
   434  0074                     	ds	4
   435                           	global	??_send_config
   436  0078                     ??_send_config:	; 0 bytes @ 0x8
   437                           	global	??_beep
   438  0078                     ??_beep:	; 0 bytes @ 0x8
   439                           	global	??_send_char
   440  0078                     ??_send_char:	; 0 bytes @ 0x8
   441                           	global	send_config@data
   442  0078                     send_config@data:	; 1 bytes @ 0x8
   443                           	global	send_char@data
   444  0078                     send_char@data:	; 1 bytes @ 0x8
   445  0078                     	ds	1
   446                           	global	??_lcd_clr
   447  0079                     ??_lcd_clr:	; 0 bytes @ 0x9
   448                           	global	??_lcd_goto
   449  0079                     ??_lcd_goto:	; 0 bytes @ 0x9
   450                           	global	??_send_string
   451  0079                     ??_send_string:	; 0 bytes @ 0x9
   452  0079                     	ds	1
   453                           	global	lcd_goto@data
   454  007A                     lcd_goto@data:	; 1 bytes @ 0xA
   455                           	global	send_string@i
   456  007A                     send_string@i:	; 1 bytes @ 0xA
   457  007A                     	ds	1
   458                           	global	send_string@s
   459  007B                     send_string@s:	; 1 bytes @ 0xB
   460  007B                     	ds	1
   461                           psect	cstackBANK0,class=BANK0,space=1
   462                           global __pcstackBANK0
   463  0020                     __pcstackBANK0:
   464                           	global	??_main
   465  0020                     ??_main:	; 0 bytes @ 0x0
   466  0020                     	ds	4
   467                           	global	main@user_1
   468  0024                     main@user_1:	; 10 bytes @ 0x4
   469  0024                     	ds	10
   470                           	global	main@user_2
   471  002E                     main@user_2:	; 10 bytes @ 0xE
   472  002E                     	ds	10
   473                           	global	main@id_1
   474  0038                     main@id_1:	; 10 bytes @ 0x18
   475  0038                     	ds	10
   476                           	global	main@id_2
   477  0042                     main@id_2:	; 10 bytes @ 0x22
   478  0042                     	ds	10
   479                           	global	main@data
   480  004C                     main@data:	; 12 bytes @ 0x2C
   481  004C                     	ds	12
   482                           	global	main@database
   483  0058                     main@database:	; 1 bytes @ 0x38
   484  0058                     	ds	1
   485                           	global	main@temp
   486  0059                     main@temp:	; 1 bytes @ 0x39
   487  0059                     	ds	1
   488                           	global	main@i
   489  005A                     main@i:	; 1 bytes @ 0x3A
   490  005A                     	ds	1
   491                           ;!
   492                           ;!Data Sizes:
   493                           ;!    Strings     102
   494                           ;!    Constant    0
   495                           ;!    Data        40
   496                           ;!    BSS         0
   497                           ;!    Persistent  0
   498                           ;!    Stack       0
   499                           ;!
   500                           ;!Auto Spaces:
   501                           ;!    Space          Size  Autos    Used
   502                           ;!    COMMON           14     12      12
   503                           ;!    BANK0            80     59      79
   504                           ;!    BANK1            80      0      20
   505                           ;!    BANK3            96      0       0
   506                           ;!    BANK2            96      0       0
   507                           
   508                           ;!
   509                           ;!Pointer List with Targets:
   510                           ;!
   511                           ;!    send_string@s	PTR const unsigned char  size(1) Largest target is 17
   512                           ;!		 -> STR_11(CODE[15]), STR_10(CODE[5]), STR_9(CODE[7]), STR_8(CODE[5]), 
   513                           ;!		 -> STR_7(CODE[7]), STR_6(CODE[4]), STR_5(CODE[17]), STR_4(CODE[15]), 
   514                           ;!		 -> STR_3(CODE[14]), STR_2(CODE[12]), STR_1(CODE[13]), 
   515                           ;!
   516                           
   517                           
   518                           ;!
   519                           ;!Critical Paths under _main in COMMON
   520                           ;!
   521                           ;!    _main->_send_string
   522                           ;!    _lcd_clr->_send_config
   523                           ;!    _lcd_goto->_send_config
   524                           ;!    _send_config->_delay
   525                           ;!    _send_string->_send_char
   526                           ;!    _beep->_delay
   527                           ;!    _send_char->_delay
   528                           ;!
   529                           ;!Critical Paths under _main in BANK0
   530                           ;!
   531                           ;!    None.
   532                           ;!
   533                           ;!Critical Paths under _main in BANK1
   534                           ;!
   535                           ;!    None.
   536                           ;!
   537                           ;!Critical Paths under _main in BANK3
   538                           ;!
   539                           ;!    None.
   540                           ;!
   541                           ;!Critical Paths under _main in BANK2
   542                           ;!
   543                           ;!    None.
   544                           
   545 ;;
   546 ;;Main: autosize = 0, tempsize = 4, incstack = 0, save=0
   547 ;;
   548                           
   549                           ;!
   550                           ;!Call Graph Tables:
   551                           ;!
   552                           ;! ---------------------------------------------------------------------------------
   553                           ;! (Depth) Function   	        Calls       Base Space   Used Autos Params    Refs
   554                           ;! ---------------------------------------------------------------------------------
   555                           ;! (0) _main                                                59    59      0    1546
   556                           ;!                                              0 BANK0     59    59      0
   557                           ;!                        _send_config
   558                           ;!                            _lcd_clr
   559                           ;!                           _lcd_goto
   560                           ;!                        _send_string
   561                           ;!                               _beep
   562                           ;!                              _delay
   563                           ;!                           _uart_rec
   564                           ;!                          _send_char
   565                           ;! ---------------------------------------------------------------------------------
   566                           ;! (1) _lcd_clr                                              0     0      0     112
   567                           ;!                        _send_config
   568                           ;!                              _delay
   569                           ;! ---------------------------------------------------------------------------------
   570                           ;! (1) _lcd_goto                                             2     2      0     156
   571                           ;!                                              9 COMMON     2     2      0
   572                           ;!                        _send_config
   573                           ;! ---------------------------------------------------------------------------------
   574                           ;! (2) _send_config                                          1     1      0      67
   575                           ;!                                              8 COMMON     1     1      0
   576                           ;!                              _delay
   577                           ;! ---------------------------------------------------------------------------------
   578                           ;! (1) _send_string                                          3     3      0     135
   579                           ;!                                              9 COMMON     3     3      0
   580                           ;!                          _send_char
   581                           ;! ---------------------------------------------------------------------------------
   582                           ;! (1) _beep                                                 0     0      0      45
   583                           ;!                              _delay
   584                           ;! ---------------------------------------------------------------------------------
   585                           ;! (1) _uart_rec                                             2     2      0      23
   586                           ;!                                              0 COMMON     2     2      0
   587                           ;! ---------------------------------------------------------------------------------
   588                           ;! (1) _send_char                                            1     1      0      67
   589                           ;!                                              8 COMMON     1     1      0
   590                           ;!                              _delay
   591                           ;! ---------------------------------------------------------------------------------
   592                           ;! (2) _delay                                                8     4      4      45
   593                           ;!                                              0 COMMON     8     4      4
   594                           ;! ---------------------------------------------------------------------------------
   595                           ;! Estimated maximum stack depth 2
   596                           ;! ---------------------------------------------------------------------------------
   597                           ;!
   598                           ;! Call Graph Graphs:
   599                           ;!
   600                           ;! _main (ROOT)
   601                           ;!   _send_config
   602                           ;!     _delay
   603                           ;!   _lcd_clr
   604                           ;!     _send_config
   605                           ;!       _delay
   606                           ;!     _delay
   607                           ;!   _lcd_goto
   608                           ;!     _send_config
   609                           ;!       _delay
   610                           ;!   _send_string
   611                           ;!     _send_char
   612                           ;!       _delay
   613                           ;!   _beep
   614                           ;!     _delay
   615                           ;!   _delay
   616                           ;!   _uart_rec
   617                           ;!   _send_char
   618                           ;!     _delay
   619                           ;!
   620                           
   621                           ;! Address spaces:
   622                           
   623                           ;!Name               Size   Autos  Total    Cost      Usage
   624                           ;!BANK3               60      0       0       9        0.0%
   625                           ;!BITBANK3            60      0       0       8        0.0%
   626                           ;!SFR3                 0      0       0       4        0.0%
   627                           ;!BITSFR3              0      0       0       4        0.0%
   628                           ;!BANK2               60      0       0      11        0.0%
   629                           ;!BITBANK2            60      0       0      10        0.0%
   630                           ;!SFR2                 0      0       0       5        0.0%
   631                           ;!BITSFR2              0      0       0       5        0.0%
   632                           ;!BANK1               50      0      14       7       25.0%
   633                           ;!BITBANK1            50      0       0       6        0.0%
   634                           ;!SFR1                 0      0       0       2        0.0%
   635                           ;!BITSFR1              0      0       0       2        0.0%
   636                           ;!BANK0               50     3B      4F       5       98.8%
   637                           ;!BITBANK0            50      0       0       4        0.0%
   638                           ;!SFR0                 0      0       0       1        0.0%
   639                           ;!BITSFR0              0      0       0       1        0.0%
   640                           ;!COMMON               E      C       C       1       85.7%
   641                           ;!BITCOMMON            E      0       0       0        0.0%
   642                           ;!CODE                 0      0       0       0        0.0%
   643                           ;!DATA                 0      0      72      12        0.0%
   644                           ;!ABS                  0      0      6F       3        0.0%
   645                           ;!NULL                 0      0       0       0        0.0%
   646                           ;!STACK                0      0       3       2        0.0%
   647                           ;!EEDATA             100      0       0       0        0.0%
   648                           
   649                           	global	_main
   650                           
   651 ;; *************** function _main *****************
   652 ;; Defined at:
   653 ;;		line 55 in file "PR8.c"
   654 ;; Parameters:    Size  Location     Type
   655 ;;		None
   656 ;; Auto vars:     Size  Location     Type
   657 ;;  data           12   44[BANK0 ] unsigned char [12]
   658 ;;  id_2           10   34[BANK0 ] unsigned char [10]
   659 ;;  id_1           10   24[BANK0 ] unsigned char [10]
   660 ;;  user_2         10   14[BANK0 ] unsigned char [10]
   661 ;;  user_1         10    4[BANK0 ] unsigned char [10]
   662 ;;  i               1   58[BANK0 ] unsigned char 
   663 ;;  temp            1   57[BANK0 ] unsigned char 
   664 ;;  database        1   56[BANK0 ] unsigned char 
   665 ;; Return value:  Size  Location     Type
   666 ;;		None               void
   667 ;; Registers used:
   668 ;;		wreg, fsr0l, fsr0h, status,2, status,0, pclath, cstack
   669 ;; Tracked objects:
   670 ;;		On entry : 17F/0
   671 ;;		On exit  : 0/0
   672 ;;		Unchanged: 0/0
   673 ;; Data sizes:     COMMON   BANK0   BANK1   BANK3   BANK2
   674 ;;      Params:         0       0       0       0       0
   675 ;;      Locals:         0      55       0       0       0
   676 ;;      Temps:          0       4       0       0       0
   677 ;;      Totals:         0      59       0       0       0
   678 ;;Total ram usage:       59 bytes
   679 ;; Hardware stack levels required when called:    3
   680 ;; This function calls:
   681 ;;		_send_config
   682 ;;		_lcd_clr
   683 ;;		_lcd_goto
   684 ;;		_send_string
   685 ;;		_beep
   686 ;;		_delay
   687 ;;		_uart_rec
   688 ;;		_send_char
   689 ;; This function is called by:
   690 ;;		Startup code after reset
   691 ;; This function uses a non-reentrant model
   692 ;;
   693                           psect	maintext,global,class=CODE,delta=2,split=1
   694                           global __pmaintext
   695  053E                     __pmaintext:
   696                           psect	maintext
   697                           	file	"PR8.c"
   698                           	line	55
   699                           	global	__size_of_main
   700  02C2                     	__size_of_main	equ	__end_of_main-_main
   701                           	
   702  053E                     _main:	
   703                           	opt	stack 5
   704                           ; Regs used in _main: [wreg-fsr0h+status,2+status,0+pclath+cstack]
   705                           	line	62
   706                           	
   707  053E                     l934:	
   708                           ;PR8.c: 57: unsigned char i,temp,database;
   709                           ;PR8.c: 58: unsigned char data[12];
   710                           ;PR8.c: 62: unsigned char id_1[10]={"0002393929"};
   711  053E  3038               	movlw	(main@id_1)&0ffh
   712  053F  0084               	movwf	fsr0
   713  0540  305B               	movlw	low(main@F1149)
   714  0541  1283               	bcf	status, 5	;RP0=0, select bank0
   715  0542  1303               	bcf	status, 6	;RP1=0, select bank0
   716  0543  00A0               	movwf	(??_main+0)+0
   717  0544  0804               	movf	fsr0,w
   718  0545  00A1               	movwf	((??_main+0)+0+1)
   719  0546  300A               	movlw	10
   720  0547  00A2               	movwf	((??_main+0)+0+2)
   721  0548                     u390:
   722  0548  0820               	movf	(??_main+0)+0,w
   723  0549  0084               	movwf	fsr0
   724  054A  1383               	bcf	status, 7	;select IRP bank0
   725                           	
   726  054B  0800               	movf	indf,w
   727  054C  00A3               	movwf	((??_main+0)+0+3)
   728  054D  0AA0               	incf	(??_main+0)+0,f
   729  054E  0821               	movf	((??_main+0)+0+1),w
   730  054F  0084               	movwf	fsr0
   731                           	
   732  0550  0823               	movf	((??_main+0)+0+3),w
   733  0551  0080               	movwf	indf
   734  0552  0AA1               	incf	((??_main+0)+0+1),f
   735  0553  0BA2               	decfsz	((??_main+0)+0+2),f
   736  0554  2D48               	goto	u390
   737                           	line	63
   738                           ;PR8.c: 63: unsigned char id_2[10]={"0000797447"};
   739  0555  3042               	movlw	(main@id_2)&0ffh
   740  0556  0084               	movwf	fsr0
   741  0557  3065               	movlw	low(main@F1151)
   742  0558  00A0               	movwf	(??_main+0)+0
   743  0559  0804               	movf	fsr0,w
   744  055A  00A1               	movwf	((??_main+0)+0+1)
   745  055B  300A               	movlw	10
   746  055C  00A2               	movwf	((??_main+0)+0+2)
   747  055D                     u400:
   748  055D  0820               	movf	(??_main+0)+0,w
   749  055E  0084               	movwf	fsr0
   750  055F  1383               	bcf	status, 7	;select IRP bank0
   751                           	
   752  0560  0800               	movf	indf,w
   753  0561  00A3               	movwf	((??_main+0)+0+3)
   754  0562  0AA0               	incf	(??_main+0)+0,f
   755  0563  0821               	movf	((??_main+0)+0+1),w
   756  0564  0084               	movwf	fsr0
   757                           	
   758  0565  0823               	movf	((??_main+0)+0+3),w
   759  0566  0080               	movwf	indf
   760  0567  0AA1               	incf	((??_main+0)+0+1),f
   761  0568  0BA2               	decfsz	((??_main+0)+0+2),f
   762  0569  2D5D               	goto	u400
   763                           	line	65
   764                           ;PR8.c: 65: unsigned char user_1[10]={"Joseph    "};
   765  056A  3024               	movlw	(main@user_1)&0ffh
   766  056B  0084               	movwf	fsr0
   767  056C  30A0               	movlw	low(main@F1153)
   768  056D  00A0               	movwf	(??_main+0)+0
   769  056E  0804               	movf	fsr0,w
   770  056F  00A1               	movwf	((??_main+0)+0+1)
   771  0570  300A               	movlw	10
   772  0571  00A2               	movwf	((??_main+0)+0+2)
   773  0572                     u410:
   774  0572  0820               	movf	(??_main+0)+0,w
   775  0573  0084               	movwf	fsr0
   776  0574  1383               	bcf	status, 7	;select IRP bank1
   777                           	
   778  0575  0800               	movf	indf,w
   779  0576  00A3               	movwf	((??_main+0)+0+3)
   780  0577  0AA0               	incf	(??_main+0)+0,f
   781  0578  0821               	movf	((??_main+0)+0+1),w
   782  0579  0084               	movwf	fsr0
   783                           	
   784  057A  0823               	movf	((??_main+0)+0+3),w
   785  057B  0080               	movwf	indf
   786  057C  0AA1               	incf	((??_main+0)+0+1),f
   787  057D  0BA2               	decfsz	((??_main+0)+0+2),f
   788  057E  2D72               	goto	u410
   789                           	line	66
   790                           ;PR8.c: 66: unsigned char user_2[10]={"Mary      "};
   791  057F  302E               	movlw	(main@user_2)&0ffh
   792  0580  0084               	movwf	fsr0
   793  0581  30AA               	movlw	low(main@F1155)
   794  0582  00A0               	movwf	(??_main+0)+0
   795  0583  0804               	movf	fsr0,w
   796  0584  00A1               	movwf	((??_main+0)+0+1)
   797  0585  300A               	movlw	10
   798  0586  00A2               	movwf	((??_main+0)+0+2)
   799  0587                     u420:
   800  0587  0820               	movf	(??_main+0)+0,w
   801  0588  0084               	movwf	fsr0
   802  0589  1383               	bcf	status, 7	;select IRP bank1
   803                           	
   804  058A  0800               	movf	indf,w
   805  058B  00A3               	movwf	((??_main+0)+0+3)
   806  058C  0AA0               	incf	(??_main+0)+0,f
   807  058D  0821               	movf	((??_main+0)+0+1),w
   808  058E  0084               	movwf	fsr0
   809                           	
   810  058F  0823               	movf	((??_main+0)+0+3),w
   811  0590  0080               	movwf	indf
   812  0591  0AA1               	incf	((??_main+0)+0+1),f
   813  0592  0BA2               	decfsz	((??_main+0)+0+2),f
   814  0593  2D87               	goto	u420
   815                           	line	69
   816                           	
   817  0594                     l936:	
   818                           ;PR8.c: 69: TRISB = 0b00000000;
   819  0594  1683               	bsf	status, 5	;RP0=1, select bank1
   820  0595  1303               	bcf	status, 6	;RP1=0, select bank1
   821  0596  0186               	clrf	(134)^080h	;volatile
   822                           	line	70
   823                           	
   824  0597                     l938:	
   825                           ;PR8.c: 70: TRISC = 0b10000000;
   826  0597  3080               	movlw	(080h)
   827  0598  0087               	movwf	(135)^080h	;volatile
   828                           	line	71
   829                           	
   830  0599                     l940:	
   831                           ;PR8.c: 71: TRISA = 0b11110011;
   832  0599  30F3               	movlw	(0F3h)
   833  059A  0085               	movwf	(133)^080h	;volatile
   834                           	line	74
   835                           	
   836  059B                     l942:	
   837                           ;PR8.c: 74: SPBRG = 0x81;
   838  059B  3081               	movlw	(081h)
   839  059C  0099               	movwf	(153)^080h	;volatile
   840                           	line	75
   841                           	
   842  059D                     l944:	
   843                           ;PR8.c: 75: BRGH = 1;
   844  059D  1518               	bsf	(1218/8)^080h,(1218)&7	;volatile
   845                           	line	76
   846                           	
   847  059E                     l946:	
   848                           ;PR8.c: 76: TXEN = 1;
   849  059E  1698               	bsf	(1221/8)^080h,(1221)&7	;volatile
   850                           	line	77
   851                           	
   852  059F                     l948:	
   853                           ;PR8.c: 77: CREN = 1;
   854  059F  1283               	bcf	status, 5	;RP0=0, select bank0
   855  05A0  1303               	bcf	status, 6	;RP1=0, select bank0
   856  05A1  1618               	bsf	(196/8),(196)&7	;volatile
   857                           	line	78
   858                           	
   859  05A2                     l950:	
   860                           ;PR8.c: 78: SPEN = 1;
   861  05A2  1798               	bsf	(199/8),(199)&7	;volatile
   862                           	line	81
   863                           	
   864  05A3                     l952:	
   865                           ;PR8.c: 81: ADCON1 = 0b00000110;
   866  05A3  3006               	movlw	(06h)
   867  05A4  1683               	bsf	status, 5	;RP0=1, select bank1
   868  05A5  1303               	bcf	status, 6	;RP1=0, select bank1
   869  05A6  009F               	movwf	(159)^080h	;volatile
   870                           	line	84
   871                           	
   872  05A7                     l954:	
   873                           ;PR8.c: 84: send_config(0b00000001);
   874  05A7  3001               	movlw	(01h)
   875  05A8  120A  118A  24C1   	fcall	_send_config
              120A  118A         
   876                           	line	85
   877                           	
   878  05AD                     l956:	
   879                           ;PR8.c: 85: send_config(0b00000010);
   880  05AD  3002               	movlw	(02h)
   881  05AE  120A  118A  24C1   	fcall	_send_config
              120A  118A         
   882                           	line	86
   883                           	
   884  05B3                     l958:	
   885                           ;PR8.c: 86: send_config(0b00000110);
   886  05B3  3006               	movlw	(06h)
   887  05B4  120A  118A  24C1   	fcall	_send_config
              120A  118A         
   888                           	line	87
   889                           	
   890  05B9                     l960:	
   891                           ;PR8.c: 87: send_config(0b00001100);
   892  05B9  300C               	movlw	(0Ch)
   893  05BA  120A  118A  24C1   	fcall	_send_config
              120A  118A         
   894                           	line	88
   895                           	
   896  05BF                     l962:	
   897                           ;PR8.c: 88: send_config(0b00111000);
   898  05BF  3038               	movlw	(038h)
   899  05C0  120A  118A  24C1   	fcall	_send_config
              120A  118A         
   900                           	line	91
   901                           	
   902  05C5                     l964:	
   903                           ;PR8.c: 91: RC0=0;
   904  05C5  1283               	bcf	status, 5	;RP0=0, select bank0
   905  05C6  1303               	bcf	status, 6	;RP1=0, select bank0
   906  05C7  1007               	bcf	(56/8),(56)&7	;volatile
   907                           	line	92
   908                           	
   909  05C8                     l966:	
   910                           ;PR8.c: 92: RC1=1;
   911  05C8  1487               	bsf	(57/8),(57)&7	;volatile
   912                           	line	93
   913                           	
   914  05C9                     l968:	
   915                           ;PR8.c: 93: RA2=0;
   916  05C9  1105               	bcf	(42/8),(42)&7	;volatile
   917                           	line	94
   918                           	
   919  05CA                     l970:	
   920                           ;PR8.c: 94: RA3=0;
   921  05CA  1185               	bcf	(43/8),(43)&7	;volatile
   922                           	line	96
   923                           	
   924  05CB                     l972:	
   925                           ;PR8.c: 96: lcd_clr();
   926  05CB  120A  118A  2402   	fcall	_lcd_clr
              120A  118A         
   927                           	line	97
   928                           	
   929  05D0                     l974:	
   930                           ;PR8.c: 97: lcd_goto(0);
   931  05D0  3000               	movlw	(0)
   932  05D1  120A  118A  243E   	fcall	_lcd_goto
              120A  118A         
   933                           	line	98
   934                           	
   935  05D6                     l976:	
   936                           ;PR8.c: 98: send_string("   RFID door");
   937  05D6  303E               	movlw	((STR_1-__stringbase))&0ffh
   938  05D7  120A  118A  24E7   	fcall	_send_string
              120A  118A         
   939                           	line	99
   940                           	
   941  05DC                     l978:	
   942                           ;PR8.c: 99: lcd_goto(20);
   943  05DC  3014               	movlw	(014h)
   944  05DD  120A  118A  243E   	fcall	_lcd_goto
              120A  118A         
   945                           	line	100
   946                           	
   947  05E2                     l980:	
   948                           ;PR8.c: 100: send_string("   security");
   949  05E2  304B               	movlw	((STR_2-__stringbase))&0ffh
   950  05E3  120A  118A  24E7   	fcall	_send_string
              120A  118A         
   951                           	line	102
   952                           	
   953  05E8                     l982:	
   954                           ;PR8.c: 102: beep();
   955  05E8  120A  118A  247A   	fcall	_beep
              120A  118A         
   956                           	line	103
   957                           	
   958  05ED                     l984:	
   959                           ;PR8.c: 103: delay(200000);
   960  05ED  3000               	movlw	0
   961  05EE  00F3               	movwf	(?_delay+3)
   962  05EF  3003               	movlw	03h
   963  05F0  00F2               	movwf	(?_delay+2)
   964  05F1  300D               	movlw	0Dh
   965  05F2  00F1               	movwf	(?_delay+1)
   966  05F3  3040               	movlw	040h
   967  05F4  00F0               	movwf	(?_delay)
   968                           
   969  05F5  120A  118A  250E   	fcall	_delay
              120A  118A         
   970  05FA  2DFB               	goto	l986
   971                           	line	106
   972                           ;PR8.c: 106: while(1)
   973                           	
   974  05FB                     l65:	
   975                           	line	108
   976                           	
   977  05FB                     l986:	
   978                           ;PR8.c: 107: {
   979                           ;PR8.c: 108: CREN = 1;
   980  05FB  1283               	bcf	status, 5	;RP0=0, select bank0
   981  05FC  1303               	bcf	status, 6	;RP1=0, select bank0
   982  05FD  1618               	bsf	(196/8),(196)&7	;volatile
   983                           	line	109
   984                           	
   985  05FE                     l988:	
   986                           ;PR8.c: 109: lcd_clr();
   987  05FE  120A  118A  2402   	fcall	_lcd_clr
              120A  118A         
   988                           	line	110
   989                           	
   990  0603                     l990:	
   991                           ;PR8.c: 110: lcd_goto(0);
   992  0603  3000               	movlw	(0)
   993  0604  120A  118A  243E   	fcall	_lcd_goto
              120A  118A         
   994                           	line	111
   995                           	
   996  0609                     l992:	
   997                           ;PR8.c: 111: send_string("Place your ID");
   998  0609  3030               	movlw	((STR_3-__stringbase))&0ffh
   999  060A  120A  118A  24E7   	fcall	_send_string
              120A  118A         
  1000                           	line	112
  1001                           	
  1002  060F                     l994:	
  1003                           ;PR8.c: 112: lcd_goto(20);
  1004  060F  3014               	movlw	(014h)
  1005  0610  120A  118A  243E   	fcall	_lcd_goto
              120A  118A         
  1006                           	line	113
  1007                           	
  1008  0615                     l996:	
  1009                           ;PR8.c: 113: send_string("on the reader.");
  1010  0615  3012               	movlw	((STR_4-__stringbase))&0ffh
  1011  0616  120A  118A  24E7   	fcall	_send_string
              120A  118A         
  1012                           	line	115
  1013                           	
  1014  061B                     l998:	
  1015                           ;PR8.c: 115: for(i=0;i<12;i+=1)data[i]=uart_rec();
  1016  061B  1283               	bcf	status, 5	;RP0=0, select bank0
  1017  061C  1303               	bcf	status, 6	;RP1=0, select bank0
  1018  061D  01DA               	clrf	(main@i)
  1019                           	
  1020  061E                     l1000:	
  1021  061E  300C               	movlw	(0Ch)
  1022  061F  025A               	subwf	(main@i),w
  1023  0620  1C03               	skipc
  1024  0621  2E23               	goto	u431
  1025  0622  2E24               	goto	u430
  1026  0623                     u431:
  1027  0623  2E26               	goto	l1004
  1028  0624                     u430:
  1029  0624  2E3E               	goto	l67
  1030                           	
  1031  0625                     l1002:	
  1032  0625  2E3E               	goto	l67
  1033                           	
  1034  0626                     l66:	
  1035                           	
  1036  0626                     l1004:	
  1037  0626  120A  118A  23E0   	fcall	_uart_rec
              120A  118A         
  1038  062B  1283               	bcf	status, 5	;RP0=0, select bank0
  1039  062C  1303               	bcf	status, 6	;RP1=0, select bank0
  1040  062D  00A0               	movwf	(??_main+0)+0
  1041  062E  085A               	movf	(main@i),w
  1042  062F  3E4C               	addlw	main@data&0ffh
  1043  0630  0084               	movwf	fsr0
  1044  0631  0820               	movf	(??_main+0)+0,w
  1045  0632  1383               	bcf	status, 7	;select IRP bank0
  1046  0633  0080               	movwf	indf
  1047                           	
  1048  0634                     l1006:	
  1049  0634  3001               	movlw	(01h)
  1050  0635  00A0               	movwf	(??_main+0)+0
  1051  0636  0820               	movf	(??_main+0)+0,w
  1052  0637  07DA               	addwf	(main@i),f
  1053                           	
  1054  0638                     l1008:	
  1055  0638  300C               	movlw	(0Ch)
  1056  0639  025A               	subwf	(main@i),w
  1057  063A  1C03               	skipc
  1058  063B  2E3D               	goto	u441
  1059  063C  2E3E               	goto	u440
  1060  063D                     u441:
  1061  063D  2E26               	goto	l1004
  1062  063E                     u440:
  1063                           	
  1064  063E                     l67:	
  1065                           	line	119
  1066                           ;PR8.c: 119: RA2=1;
  1067  063E  1505               	bsf	(42/8),(42)&7	;volatile
  1068                           	line	121
  1069                           	
  1070  063F                     l1010:	
  1071                           ;PR8.c: 121: lcd_clr();
  1072  063F  120A  118A  2402   	fcall	_lcd_clr
              120A  118A         
  1073                           	line	122
  1074                           ;PR8.c: 122: lcd_goto(20);
  1075  0644  3014               	movlw	(014h)
  1076  0645  120A  118A  243E   	fcall	_lcd_goto
              120A  118A         
  1077                           	line	123
  1078                           	
  1079  064A                     l1012:	
  1080                           ;PR8.c: 123: send_string("Processing......");
  1081  064A  3001               	movlw	((STR_5-__stringbase))&0ffh
  1082  064B  120A  118A  24E7   	fcall	_send_string
              120A  118A         
  1083                           	line	124
  1084                           	
  1085  0650                     l1014:	
  1086                           ;PR8.c: 124: delay(40000);
  1087  0650  3000               	movlw	0
  1088  0651  00F3               	movwf	(?_delay+3)
  1089  0652  3000               	movlw	0
  1090  0653  00F2               	movwf	(?_delay+2)
  1091  0654  309C               	movlw	09Ch
  1092  0655  00F1               	movwf	(?_delay+1)
  1093  0656  3040               	movlw	040h
  1094  0657  00F0               	movwf	(?_delay)
  1095                           
  1096  0658  120A  118A  250E   	fcall	_delay
              120A  118A         
  1097                           	line	126
  1098                           	
  1099  065D                     l1016:	
  1100                           ;PR8.c: 126: database=0;
  1101  065D  1283               	bcf	status, 5	;RP0=0, select bank0
  1102  065E  1303               	bcf	status, 6	;RP1=0, select bank0
  1103  065F  01D8               	clrf	(main@database)
  1104                           	line	129
  1105                           	
  1106  0660                     l1018:	
  1107                           ;PR8.c: 129: temp=0;
  1108  0660  01D9               	clrf	(main@temp)
  1109                           	line	132
  1110                           	
  1111  0661                     l1020:	
  1112                           ;PR8.c: 132: for(i=1;i<11;i+=1)
  1113  0661  01DA               	clrf	(main@i)
  1114  0662  1403               	bsf	status,0
  1115  0663  0DDA               	rlf	(main@i),f
  1116                           	
  1117  0664                     l1022:	
  1118  0664  300B               	movlw	(0Bh)
  1119  0665  025A               	subwf	(main@i),w
  1120  0666  1C03               	skipc
  1121  0667  2E69               	goto	u451
  1122  0668  2E6A               	goto	u450
  1123  0669                     u451:
  1124  0669  2E6C               	goto	l1026
  1125  066A                     u450:
  1126  066A  2E8B               	goto	l1032
  1127                           	
  1128  066B                     l1024:	
  1129  066B  2E8B               	goto	l1032
  1130                           	line	133
  1131                           	
  1132  066C                     l68:	
  1133                           	line	134
  1134                           	
  1135  066C                     l1026:	
  1136                           ;PR8.c: 133: {
  1137                           ;PR8.c: 134: if((data[i])!=(id_1[i-1]))temp=1;
  1138  066C  085A               	movf	(main@i),w
  1139  066D  3EFF               	addlw	0FFh
  1140  066E  3E38               	addlw	main@id_1&0ffh
  1141  066F  0084               	movwf	fsr
  1142  0670  1383               	bcf	status, 7	;select IRP bank0
  1143  0671  0800               	movf	indf,w
  1144  0672  00A0               	movwf	(??_main+0)+0
  1145  0673  085A               	movf	(main@i),w
  1146  0674  3E4C               	addlw	main@data&0ffh
  1147  0675  0084               	movwf	fsr0
  1148  0676  0800               	movf	indf,w
  1149  0677  0620               	xorwf	(??_main+0)+0,w
  1150  0678  1903               	skipnz
  1151  0679  2E7B               	goto	u461
  1152  067A  2E7C               	goto	u460
  1153  067B                     u461:
  1154  067B  2E80               	goto	l1030
  1155  067C                     u460:
  1156                           	
  1157  067C                     l1028:	
  1158  067C  01D9               	clrf	(main@temp)
  1159  067D  1403               	bsf	status,0
  1160  067E  0DD9               	rlf	(main@temp),f
  1161  067F  2E80               	goto	l1030
  1162                           	
  1163  0680                     l70:	
  1164                           	line	132
  1165                           	
  1166  0680                     l1030:	
  1167  0680  3001               	movlw	(01h)
  1168  0681  00A0               	movwf	(??_main+0)+0
  1169  0682  0820               	movf	(??_main+0)+0,w
  1170  0683  07DA               	addwf	(main@i),f
  1171  0684  300B               	movlw	(0Bh)
  1172  0685  025A               	subwf	(main@i),w
  1173  0686  1C03               	skipc
  1174  0687  2E89               	goto	u471
  1175  0688  2E8A               	goto	u470
  1176  0689                     u471:
  1177  0689  2E6C               	goto	l1026
  1178  068A                     u470:
  1179  068A  2E8B               	goto	l1032
  1180                           	
  1181  068B                     l69:	
  1182                           	line	136
  1183                           	
  1184  068B                     l1032:	
  1185                           ;PR8.c: 135: }
  1186                           ;PR8.c: 136: if(temp==0) database=1;
  1187  068B  08D9               	movf	(main@temp),f
  1188  068C  1D03               	skipz
  1189  068D  2E8F               	goto	u481
  1190  068E  2E90               	goto	u480
  1191  068F                     u481:
  1192  068F  2E94               	goto	l1036
  1193  0690                     u480:
  1194                           	
  1195  0690                     l1034:	
  1196  0690  01D8               	clrf	(main@database)
  1197  0691  1403               	bsf	status,0
  1198  0692  0DD8               	rlf	(main@database),f
  1199  0693  2E94               	goto	l1036
  1200                           	
  1201  0694                     l71:	
  1202                           	line	139
  1203                           	
  1204  0694                     l1036:	
  1205                           ;PR8.c: 139: temp=0;
  1206  0694  01D9               	clrf	(main@temp)
  1207                           	line	142
  1208                           ;PR8.c: 142: for(i=1;i<11;i+=1)
  1209  0695  01DA               	clrf	(main@i)
  1210  0696  1403               	bsf	status,0
  1211  0697  0DDA               	rlf	(main@i),f
  1212                           	
  1213  0698                     l1038:	
  1214  0698  300B               	movlw	(0Bh)
  1215  0699  025A               	subwf	(main@i),w
  1216  069A  1C03               	skipc
  1217  069B  2E9D               	goto	u491
  1218  069C  2E9E               	goto	u490
  1219  069D                     u491:
  1220  069D  2EA0               	goto	l1042
  1221  069E                     u490:
  1222  069E  2EBF               	goto	l1048
  1223                           	
  1224  069F                     l1040:	
  1225  069F  2EBF               	goto	l1048
  1226                           	line	143
  1227                           	
  1228  06A0                     l72:	
  1229                           	line	144
  1230                           	
  1231  06A0                     l1042:	
  1232                           ;PR8.c: 143: {
  1233                           ;PR8.c: 144: if((data[i])!=(id_2[i-1]))temp=1;
  1234  06A0  085A               	movf	(main@i),w
  1235  06A1  3EFF               	addlw	0FFh
  1236  06A2  3E42               	addlw	main@id_2&0ffh
  1237  06A3  0084               	movwf	fsr
  1238  06A4  1383               	bcf	status, 7	;select IRP bank0
  1239  06A5  0800               	movf	indf,w
  1240  06A6  00A0               	movwf	(??_main+0)+0
  1241  06A7  085A               	movf	(main@i),w
  1242  06A8  3E4C               	addlw	main@data&0ffh
  1243  06A9  0084               	movwf	fsr0
  1244  06AA  0800               	movf	indf,w
  1245  06AB  0620               	xorwf	(??_main+0)+0,w
  1246  06AC  1903               	skipnz
  1247  06AD  2EAF               	goto	u501
  1248  06AE  2EB0               	goto	u500
  1249  06AF                     u501:
  1250  06AF  2EB4               	goto	l1046
  1251  06B0                     u500:
  1252                           	
  1253  06B0                     l1044:	
  1254  06B0  01D9               	clrf	(main@temp)
  1255  06B1  1403               	bsf	status,0
  1256  06B2  0DD9               	rlf	(main@temp),f
  1257  06B3  2EB4               	goto	l1046
  1258                           	
  1259  06B4                     l74:	
  1260                           	line	142
  1261                           	
  1262  06B4                     l1046:	
  1263  06B4  3001               	movlw	(01h)
  1264  06B5  00A0               	movwf	(??_main+0)+0
  1265  06B6  0820               	movf	(??_main+0)+0,w
  1266  06B7  07DA               	addwf	(main@i),f
  1267  06B8  300B               	movlw	(0Bh)
  1268  06B9  025A               	subwf	(main@i),w
  1269  06BA  1C03               	skipc
  1270  06BB  2EBD               	goto	u511
  1271  06BC  2EBE               	goto	u510
  1272  06BD                     u511:
  1273  06BD  2EA0               	goto	l1042
  1274  06BE                     u510:
  1275  06BE  2EBF               	goto	l1048
  1276                           	
  1277  06BF                     l73:	
  1278                           	line	146
  1279                           	
  1280  06BF                     l1048:	
  1281                           ;PR8.c: 145: }
  1282                           ;PR8.c: 146: if(temp==0) database=2;
  1283  06BF  08D9               	movf	(main@temp),f
  1284  06C0  1D03               	skipz
  1285  06C1  2EC3               	goto	u521
  1286  06C2  2EC4               	goto	u520
  1287  06C3                     u521:
  1288  06C3  2EC9               	goto	l1052
  1289  06C4                     u520:
  1290                           	
  1291  06C4                     l1050:	
  1292  06C4  3002               	movlw	(02h)
  1293  06C5  00A0               	movwf	(??_main+0)+0
  1294  06C6  0820               	movf	(??_main+0)+0,w
  1295  06C7  00D8               	movwf	(main@database)
  1296  06C8  2EC9               	goto	l1052
  1297                           	
  1298  06C9                     l75:	
  1299                           	line	148
  1300                           	
  1301  06C9                     l1052:	
  1302                           ;PR8.c: 148: lcd_clr();
  1303  06C9  120A  118A  2402   	fcall	_lcd_clr
              120A  118A         
  1304                           	line	149
  1305                           	
  1306  06CE                     l1054:	
  1307                           ;PR8.c: 149: CREN = 0;
  1308  06CE  1283               	bcf	status, 5	;RP0=0, select bank0
  1309  06CF  1303               	bcf	status, 6	;RP1=0, select bank0
  1310  06D0  1218               	bcf	(196/8),(196)&7	;volatile
  1311                           	line	152
  1312                           ;PR8.c: 152: switch(database)
  1313  06D1  2FE0               	goto	l1150
  1314                           	line	154
  1315                           ;PR8.c: 153: {
  1316                           ;PR8.c: 154: case 1:
  1317                           	
  1318  06D2                     l77:	
  1319                           	line	155
  1320                           ;PR8.c: 155: RA3=1;
  1321  06D2  1585               	bsf	(43/8),(43)&7	;volatile
  1322                           	line	156
  1323                           	
  1324  06D3                     l1056:	
  1325                           ;PR8.c: 156: lcd_goto(0);
  1326  06D3  3000               	movlw	(0)
  1327  06D4  120A  118A  243E   	fcall	_lcd_goto
              120A  118A         
  1328                           	line	157
  1329                           	
  1330  06D9                     l1058:	
  1331                           ;PR8.c: 157: send_string("ID:");
  1332  06D9  3063               	movlw	((STR_6-__stringbase))&0ffh
  1333  06DA  120A  118A  24E7   	fcall	_send_string
              120A  118A         
  1334                           	line	158
  1335                           	
  1336  06DF                     l1060:	
  1337                           ;PR8.c: 158: for(i=0;i<10;i+=1)send_char(id_1[i]);
  1338  06DF  1283               	bcf	status, 5	;RP0=0, select bank0
  1339  06E0  1303               	bcf	status, 6	;RP1=0, select bank0
  1340  06E1  01DA               	clrf	(main@i)
  1341                           	
  1342  06E2                     l1062:	
  1343  06E2  300A               	movlw	(0Ah)
  1344  06E3  025A               	subwf	(main@i),w
  1345  06E4  1C03               	skipc
  1346  06E5  2EE7               	goto	u531
  1347  06E6  2EE8               	goto	u530
  1348  06E7                     u531:
  1349  06E7  2EEA               	goto	l1066
  1350  06E8                     u530:
  1351  06E8  2F01               	goto	l1072
  1352                           	
  1353  06E9                     l1064:	
  1354  06E9  2F01               	goto	l1072
  1355                           	
  1356  06EA                     l78:	
  1357                           	
  1358  06EA                     l1066:	
  1359  06EA  085A               	movf	(main@i),w
  1360  06EB  3E38               	addlw	main@id_1&0ffh
  1361  06EC  0084               	movwf	fsr0
  1362  06ED  1383               	bcf	status, 7	;select IRP bank0
  1363  06EE  0800               	movf	indf,w
  1364  06EF  120A  118A  249B   	fcall	_send_char
              120A  118A         
  1365                           	
  1366  06F4                     l1068:	
  1367  06F4  3001               	movlw	(01h)
  1368  06F5  1283               	bcf	status, 5	;RP0=0, select bank0
  1369  06F6  1303               	bcf	status, 6	;RP1=0, select bank0
  1370  06F7  00A0               	movwf	(??_main+0)+0
  1371  06F8  0820               	movf	(??_main+0)+0,w
  1372  06F9  07DA               	addwf	(main@i),f
  1373                           	
  1374  06FA                     l1070:	
  1375  06FA  300A               	movlw	(0Ah)
  1376  06FB  025A               	subwf	(main@i),w
  1377  06FC  1C03               	skipc
  1378  06FD  2EFF               	goto	u541
  1379  06FE  2F00               	goto	u540
  1380  06FF                     u541:
  1381  06FF  2EEA               	goto	l1066
  1382  0700                     u540:
  1383  0700  2F01               	goto	l1072
  1384                           	
  1385  0701                     l79:	
  1386                           	line	159
  1387                           	
  1388  0701                     l1072:	
  1389                           ;PR8.c: 159: lcd_goto(20);
  1390  0701  3014               	movlw	(014h)
  1391  0702  120A  118A  243E   	fcall	_lcd_goto
              120A  118A         
  1392                           	line	160
  1393                           	
  1394  0707                     l1074:	
  1395                           ;PR8.c: 160: send_string("user: ");
  1396  0707  3057               	movlw	((STR_7-__stringbase))&0ffh
  1397  0708  120A  118A  24E7   	fcall	_send_string
              120A  118A         
  1398                           	line	161
  1399                           	
  1400  070D                     l1076:	
  1401                           ;PR8.c: 161: for(i=0;i<10;i+=1)send_char(user_1[i]);
  1402  070D  1283               	bcf	status, 5	;RP0=0, select bank0
  1403  070E  1303               	bcf	status, 6	;RP1=0, select bank0
  1404  070F  01DA               	clrf	(main@i)
  1405                           	
  1406  0710                     l1078:	
  1407  0710  300A               	movlw	(0Ah)
  1408  0711  025A               	subwf	(main@i),w
  1409  0712  1C03               	skipc
  1410  0713  2F15               	goto	u551
  1411  0714  2F16               	goto	u550
  1412  0715                     u551:
  1413  0715  2F18               	goto	l1082
  1414  0716                     u550:
  1415  0716  2F2F               	goto	l1088
  1416                           	
  1417  0717                     l1080:	
  1418  0717  2F2F               	goto	l1088
  1419                           	
  1420  0718                     l80:	
  1421                           	
  1422  0718                     l1082:	
  1423  0718  085A               	movf	(main@i),w
  1424  0719  3E24               	addlw	main@user_1&0ffh
  1425  071A  0084               	movwf	fsr0
  1426  071B  1383               	bcf	status, 7	;select IRP bank0
  1427  071C  0800               	movf	indf,w
  1428  071D  120A  118A  249B   	fcall	_send_char
              120A  118A         
  1429                           	
  1430  0722                     l1084:	
  1431  0722  3001               	movlw	(01h)
  1432  0723  1283               	bcf	status, 5	;RP0=0, select bank0
  1433  0724  1303               	bcf	status, 6	;RP1=0, select bank0
  1434  0725  00A0               	movwf	(??_main+0)+0
  1435  0726  0820               	movf	(??_main+0)+0,w
  1436  0727  07DA               	addwf	(main@i),f
  1437                           	
  1438  0728                     l1086:	
  1439  0728  300A               	movlw	(0Ah)
  1440  0729  025A               	subwf	(main@i),w
  1441  072A  1C03               	skipc
  1442  072B  2F2D               	goto	u561
  1443  072C  2F2E               	goto	u560
  1444  072D                     u561:
  1445  072D  2F18               	goto	l1082
  1446  072E                     u560:
  1447  072E  2F2F               	goto	l1088
  1448                           	
  1449  072F                     l81:	
  1450                           	line	162
  1451                           	
  1452  072F                     l1088:	
  1453                           ;PR8.c: 162: beep();
  1454  072F  120A  118A  247A   	fcall	_beep
              120A  118A         
  1455                           	line	163
  1456                           ;PR8.c: 163: break;
  1457  0734  2FEA               	goto	l1152
  1458                           	line	164
  1459                           ;PR8.c: 164: case 2:
  1460                           	
  1461  0735                     l83:	
  1462                           	line	165
  1463                           ;PR8.c: 165: RA3=1;
  1464  0735  1585               	bsf	(43/8),(43)&7	;volatile
  1465                           	line	166
  1466                           	
  1467  0736                     l1090:	
  1468                           ;PR8.c: 166: lcd_goto(0);
  1469  0736  3000               	movlw	(0)
  1470  0737  120A  118A  243E   	fcall	_lcd_goto
              120A  118A         
  1471                           	line	167
  1472                           	
  1473  073C                     l1092:	
  1474                           ;PR8.c: 167: send_string("ID: ");
  1475  073C  305E               	movlw	((STR_8-__stringbase))&0ffh
  1476  073D  120A  118A  24E7   	fcall	_send_string
              120A  118A         
  1477                           	line	168
  1478                           	
  1479  0742                     l1094:	
  1480                           ;PR8.c: 168: for(i=0;i<10;i+=1)send_char(id_2[i]);
  1481  0742  1283               	bcf	status, 5	;RP0=0, select bank0
  1482  0743  1303               	bcf	status, 6	;RP1=0, select bank0
  1483  0744  01DA               	clrf	(main@i)
  1484                           	
  1485  0745                     l1096:	
  1486  0745  300A               	movlw	(0Ah)
  1487  0746  025A               	subwf	(main@i),w
  1488  0747  1C03               	skipc
  1489  0748  2F4A               	goto	u571
  1490  0749  2F4B               	goto	u570
  1491  074A                     u571:
  1492  074A  2F4D               	goto	l1100
  1493  074B                     u570:
  1494  074B  2F64               	goto	l1106
  1495                           	
  1496  074C                     l1098:	
  1497  074C  2F64               	goto	l1106
  1498                           	
  1499  074D                     l84:	
  1500                           	
  1501  074D                     l1100:	
  1502  074D  085A               	movf	(main@i),w
  1503  074E  3E42               	addlw	main@id_2&0ffh
  1504  074F  0084               	movwf	fsr0
  1505  0750  1383               	bcf	status, 7	;select IRP bank0
  1506  0751  0800               	movf	indf,w
  1507  0752  120A  118A  249B   	fcall	_send_char
              120A  118A         
  1508                           	
  1509  0757                     l1102:	
  1510  0757  3001               	movlw	(01h)
  1511  0758  1283               	bcf	status, 5	;RP0=0, select bank0
  1512  0759  1303               	bcf	status, 6	;RP1=0, select bank0
  1513  075A  00A0               	movwf	(??_main+0)+0
  1514  075B  0820               	movf	(??_main+0)+0,w
  1515  075C  07DA               	addwf	(main@i),f
  1516                           	
  1517  075D                     l1104:	
  1518  075D  300A               	movlw	(0Ah)
  1519  075E  025A               	subwf	(main@i),w
  1520  075F  1C03               	skipc
  1521  0760  2F62               	goto	u581
  1522  0761  2F63               	goto	u580
  1523  0762                     u581:
  1524  0762  2F4D               	goto	l1100
  1525  0763                     u580:
  1526  0763  2F64               	goto	l1106
  1527                           	
  1528  0764                     l85:	
  1529                           	line	169
  1530                           	
  1531  0764                     l1106:	
  1532                           ;PR8.c: 169: lcd_goto(20);
  1533  0764  3014               	movlw	(014h)
  1534  0765  120A  118A  243E   	fcall	_lcd_goto
              120A  118A         
  1535                           	line	170
  1536                           	
  1537  076A                     l1108:	
  1538                           ;PR8.c: 170: send_string("user: ");
  1539  076A  3057               	movlw	((STR_9-__stringbase))&0ffh
  1540  076B  120A  118A  24E7   	fcall	_send_string
              120A  118A         
  1541                           	line	171
  1542                           	
  1543  0770                     l1110:	
  1544                           ;PR8.c: 171: for(i=0;i<10;i+=1)send_char(user_2[i]);
  1545  0770  1283               	bcf	status, 5	;RP0=0, select bank0
  1546  0771  1303               	bcf	status, 6	;RP1=0, select bank0
  1547  0772  01DA               	clrf	(main@i)
  1548                           	
  1549  0773                     l1112:	
  1550  0773  300A               	movlw	(0Ah)
  1551  0774  025A               	subwf	(main@i),w
  1552  0775  1C03               	skipc
  1553  0776  2F78               	goto	u591
  1554  0777  2F79               	goto	u590
  1555  0778                     u591:
  1556  0778  2F7B               	goto	l1116
  1557  0779                     u590:
  1558  0779  2F92               	goto	l1122
  1559                           	
  1560  077A                     l1114:	
  1561  077A  2F92               	goto	l1122
  1562                           	
  1563  077B                     l86:	
  1564                           	
  1565  077B                     l1116:	
  1566  077B  085A               	movf	(main@i),w
  1567  077C  3E2E               	addlw	main@user_2&0ffh
  1568  077D  0084               	movwf	fsr0
  1569  077E  1383               	bcf	status, 7	;select IRP bank0
  1570  077F  0800               	movf	indf,w
  1571  0780  120A  118A  249B   	fcall	_send_char
              120A  118A         
  1572                           	
  1573  0785                     l1118:	
  1574  0785  3001               	movlw	(01h)
  1575  0786  1283               	bcf	status, 5	;RP0=0, select bank0
  1576  0787  1303               	bcf	status, 6	;RP1=0, select bank0
  1577  0788  00A0               	movwf	(??_main+0)+0
  1578  0789  0820               	movf	(??_main+0)+0,w
  1579  078A  07DA               	addwf	(main@i),f
  1580                           	
  1581  078B                     l1120:	
  1582  078B  300A               	movlw	(0Ah)
  1583  078C  025A               	subwf	(main@i),w
  1584  078D  1C03               	skipc
  1585  078E  2F90               	goto	u601
  1586  078F  2F91               	goto	u600
  1587  0790                     u601:
  1588  0790  2F7B               	goto	l1116
  1589  0791                     u600:
  1590  0791  2F92               	goto	l1122
  1591                           	
  1592  0792                     l87:	
  1593                           	line	172
  1594                           	
  1595  0792                     l1122:	
  1596                           ;PR8.c: 172: beep();
  1597  0792  120A  118A  247A   	fcall	_beep
              120A  118A         
  1598                           	line	173
  1599                           ;PR8.c: 173: break;
  1600  0797  2FEA               	goto	l1152
  1601                           	line	174
  1602                           ;PR8.c: 174: default:
  1603                           	
  1604  0798                     l88:	
  1605                           	line	175
  1606                           	
  1607  0798                     l1124:	
  1608                           ;PR8.c: 175: lcd_goto(0);
  1609  0798  3000               	movlw	(0)
  1610  0799  120A  118A  243E   	fcall	_lcd_goto
              120A  118A         
  1611                           	line	176
  1612                           	
  1613  079E                     l1126:	
  1614                           ;PR8.c: 176: send_string("ID: ");
  1615  079E  305E               	movlw	((STR_10-__stringbase))&0ffh
  1616  079F  120A  118A  24E7   	fcall	_send_string
              120A  118A         
  1617                           	line	177
  1618                           	
  1619  07A4                     l1128:	
  1620                           ;PR8.c: 177: for(i=1;i<11;i+=1)send_char(data[i]);
  1621  07A4  1283               	bcf	status, 5	;RP0=0, select bank0
  1622  07A5  1303               	bcf	status, 6	;RP1=0, select bank0
  1623  07A6  01DA               	clrf	(main@i)
  1624  07A7  1403               	bsf	status,0
  1625  07A8  0DDA               	rlf	(main@i),f
  1626                           	
  1627  07A9                     l1130:	
  1628  07A9  300B               	movlw	(0Bh)
  1629  07AA  025A               	subwf	(main@i),w
  1630  07AB  1C03               	skipc
  1631  07AC  2FAE               	goto	u611
  1632  07AD  2FAF               	goto	u610
  1633  07AE                     u611:
  1634  07AE  2FB1               	goto	l1134
  1635  07AF                     u610:
  1636  07AF  2FC8               	goto	l1140
  1637                           	
  1638  07B0                     l1132:	
  1639  07B0  2FC8               	goto	l1140
  1640                           	
  1641  07B1                     l89:	
  1642                           	
  1643  07B1                     l1134:	
  1644  07B1  085A               	movf	(main@i),w
  1645  07B2  3E4C               	addlw	main@data&0ffh
  1646  07B3  0084               	movwf	fsr0
  1647  07B4  1383               	bcf	status, 7	;select IRP bank0
  1648  07B5  0800               	movf	indf,w
  1649  07B6  120A  118A  249B   	fcall	_send_char
              120A  118A         
  1650                           	
  1651  07BB                     l1136:	
  1652  07BB  3001               	movlw	(01h)
  1653  07BC  1283               	bcf	status, 5	;RP0=0, select bank0
  1654  07BD  1303               	bcf	status, 6	;RP1=0, select bank0
  1655  07BE  00A0               	movwf	(??_main+0)+0
  1656  07BF  0820               	movf	(??_main+0)+0,w
  1657  07C0  07DA               	addwf	(main@i),f
  1658                           	
  1659  07C1                     l1138:	
  1660  07C1  300B               	movlw	(0Bh)
  1661  07C2  025A               	subwf	(main@i),w
  1662  07C3  1C03               	skipc
  1663  07C4  2FC6               	goto	u621
  1664  07C5  2FC7               	goto	u620
  1665  07C6                     u621:
  1666  07C6  2FB1               	goto	l1134
  1667  07C7                     u620:
  1668  07C7  2FC8               	goto	l1140
  1669                           	
  1670  07C8                     l90:	
  1671                           	line	178
  1672                           	
  1673  07C8                     l1140:	
  1674                           ;PR8.c: 178: lcd_goto(20);
  1675  07C8  3014               	movlw	(014h)
  1676  07C9  120A  118A  243E   	fcall	_lcd_goto
              120A  118A         
  1677                           	line	179
  1678                           	
  1679  07CE                     l1142:	
  1680                           ;PR8.c: 179: send_string("user not found");
  1681  07CE  3021               	movlw	((STR_11-__stringbase))&0ffh
  1682  07CF  120A  118A  24E7   	fcall	_send_string
              120A  118A         
  1683                           	line	180
  1684                           	
  1685  07D4                     l1144:	
  1686                           ;PR8.c: 180: beep();
  1687  07D4  120A  118A  247A   	fcall	_beep
              120A  118A         
  1688                           	line	181
  1689                           	
  1690  07D9                     l1146:	
  1691                           ;PR8.c: 181: beep();
  1692  07D9  120A  118A  247A   	fcall	_beep
              120A  118A         
  1693                           	line	182
  1694                           ;PR8.c: 182: break;
  1695  07DE  2FEA               	goto	l1152
  1696                           	line	183
  1697                           	
  1698  07DF                     l1148:	
  1699                           ;PR8.c: 183: }
  1700  07DF  2FEA               	goto	l1152
  1701                           	line	152
  1702                           	
  1703  07E0                     l76:	
  1704                           	
  1705  07E0                     l1150:	
  1706  07E0  1283               	bcf	status, 5	;RP0=0, select bank0
  1707  07E1  1303               	bcf	status, 6	;RP1=0, select bank0
  1708  07E2  0858               	movf	(main@database),w
  1709                           	; Switch size 1, requested type "space"
  1710                           ; Number of cases is 2, Range of values is 1 to 2
  1711                           ; switch strategies available:
  1712                           ; Name         Instructions Cycles
  1713                           ; simple_byte            7     4 (average)
  1714                           ; direct_byte           17    11 (fixed)
  1715                           ; jumptable            263     9 (fixed)
  1716                           ;	Chosen strategy is simple_byte
  1717                           
  1718                           	opt asmopt_off
  1719  07E3  3A01               	xorlw	1^0	; case 1
  1720  07E4  1903               	skipnz
  1721  07E5  2ED2               	goto	l77
  1722  07E6  3A03               	xorlw	2^1	; case 2
  1723  07E7  1903               	skipnz
  1724  07E8  2F35               	goto	l83
  1725  07E9  2F98               	goto	l1124
  1726                           	opt asmopt_on
  1727                           
  1728                           	line	183
  1729                           	
  1730  07EA                     l82:	
  1731                           	line	184
  1732                           	
  1733  07EA                     l1152:	
  1734                           ;PR8.c: 184: delay(300000);
  1735  07EA  3000               	movlw	0
  1736  07EB  00F3               	movwf	(?_delay+3)
  1737  07EC  3004               	movlw	04h
  1738  07ED  00F2               	movwf	(?_delay+2)
  1739  07EE  3093               	movlw	093h
  1740  07EF  00F1               	movwf	(?_delay+1)
  1741  07F0  30E0               	movlw	0E0h
  1742  07F1  00F0               	movwf	(?_delay)
  1743                           
  1744  07F2  120A  118A  250E   	fcall	_delay
              120A  118A         
  1745                           	line	185
  1746                           	
  1747  07F7                     l1154:	
  1748                           ;PR8.c: 185: RA2=0;
  1749  07F7  1283               	bcf	status, 5	;RP0=0, select bank0
  1750  07F8  1303               	bcf	status, 6	;RP1=0, select bank0
  1751  07F9  1105               	bcf	(42/8),(42)&7	;volatile
  1752                           	line	186
  1753                           	
  1754  07FA                     l1156:	
  1755                           ;PR8.c: 186: RA3=0;
  1756  07FA  1185               	bcf	(43/8),(43)&7	;volatile
  1757  07FB  2DFB               	goto	l986
  1758                           	line	187
  1759                           	
  1760  07FC                     l91:	
  1761                           	line	106
  1762  07FC  2DFB               	goto	l986
  1763                           	
  1764  07FD                     l92:	
  1765                           	line	189
  1766                           	
  1767  07FD                     l93:	
  1768                           	global	start
  1769  07FD  120A  118A  2800   	ljmp	start
  1770                           	opt stack 0
  1771                           GLOBAL	__end_of_main
  1772  0800                     	__end_of_main:
  1773                           	signat	_main,88
  1774                           	global	_lcd_clr
  1775                           
  1776 ;; *************** function _lcd_clr *****************
  1777 ;; Defined at:
  1778 ;;		line 236 in file "PR8.c"
  1779 ;; Parameters:    Size  Location     Type
  1780 ;;		None
  1781 ;; Auto vars:     Size  Location     Type
  1782 ;;		None
  1783 ;; Return value:  Size  Location     Type
  1784 ;;		None               void
  1785 ;; Registers used:
  1786 ;;		wreg, status,2, status,0, pclath, cstack
  1787 ;; Tracked objects:
  1788 ;;		On entry : 0/0
  1789 ;;		On exit  : 0/0
  1790 ;;		Unchanged: 0/0
  1791 ;; Data sizes:     COMMON   BANK0   BANK1   BANK3   BANK2
  1792 ;;      Params:         0       0       0       0       0
  1793 ;;      Locals:         0       0       0       0       0
  1794 ;;      Temps:          0       0       0       0       0
  1795 ;;      Totals:         0       0       0       0       0
  1796 ;;Total ram usage:        0 bytes
  1797 ;; Hardware stack levels used:    1
  1798 ;; Hardware stack levels required when called:    2
  1799 ;; This function calls:
  1800 ;;		_send_config
  1801 ;;		_delay
  1802 ;; This function is called by:
  1803 ;;		_main
  1804 ;; This function uses a non-reentrant model
  1805 ;;
  1806                           psect	text169,local,class=CODE,delta=2,merge=1
  1807                           global __ptext169
  1808  0402                     __ptext169:
  1809                           psect	text169
  1810                           	file	"PR8.c"
  1811                           	line	236
  1812                           	global	__size_of_lcd_clr
  1813  0014                     	__size_of_lcd_clr	equ	__end_of_lcd_clr-_lcd_clr
  1814                           	
  1815  0402                     _lcd_clr:	
  1816                           	opt	stack 5
  1817                           ; Regs used in _lcd_clr: [wreg+status,2+status,0+pclath+cstack]
  1818                           	line	237
  1819                           	
  1820  0402                     l914:	
  1821                           ;PR8.c: 237: send_config(0x01);
  1822  0402  3001               	movlw	(01h)
  1823  0403  120A  118A  24C1   	fcall	_send_config
              120A  118A         
  1824                           	line	238
  1825                           ;PR8.c: 238: delay(600);
  1826  0408  3000               	movlw	0
  1827  0409  00F3               	movwf	(?_delay+3)
  1828  040A  3000               	movlw	0
  1829  040B  00F2               	movwf	(?_delay+2)
  1830  040C  3002               	movlw	02h
  1831  040D  00F1               	movwf	(?_delay+1)
  1832  040E  3058               	movlw	058h
  1833  040F  00F0               	movwf	(?_delay)
  1834                           
  1835  0410  120A  118A  250E   	fcall	_delay
              120A  118A         
  1836                           	line	239
  1837                           	
  1838  0415                     l112:	
  1839  0415  0008               	return
  1840                           	opt stack 0
  1841                           GLOBAL	__end_of_lcd_clr
  1842  0416                     	__end_of_lcd_clr:
  1843                           	signat	_lcd_clr,88
  1844                           	global	_lcd_goto
  1845                           
  1846 ;; *************** function _lcd_goto *****************
  1847 ;; Defined at:
  1848 ;;		line 223 in file "PR8.c"
  1849 ;; Parameters:    Size  Location     Type
  1850 ;;  data            1    wreg     unsigned char 
  1851 ;; Auto vars:     Size  Location     Type
  1852 ;;  data            1   10[COMMON] unsigned char 
  1853 ;; Return value:  Size  Location     Type
  1854 ;;		None               void
  1855 ;; Registers used:
  1856 ;;		wreg, status,2, status,0, pclath, cstack
  1857 ;; Tracked objects:
  1858 ;;		On entry : 0/0
  1859 ;;		On exit  : 0/0
  1860 ;;		Unchanged: 0/0
  1861 ;; Data sizes:     COMMON   BANK0   BANK1   BANK3   BANK2
  1862 ;;      Params:         0       0       0       0       0
  1863 ;;      Locals:         1       0       0       0       0
  1864 ;;      Temps:          1       0       0       0       0
  1865 ;;      Totals:         2       0       0       0       0
  1866 ;;Total ram usage:        2 bytes
  1867 ;; Hardware stack levels used:    1
  1868 ;; Hardware stack levels required when called:    2
  1869 ;; This function calls:
  1870 ;;		_send_config
  1871 ;; This function is called by:
  1872 ;;		_main
  1873 ;; This function uses a non-reentrant model
  1874 ;;
  1875                           psect	text170,local,class=CODE,delta=2,merge=1
  1876                           global __ptext170
  1877  043E                     __ptext170:
  1878                           psect	text170
  1879                           	file	"PR8.c"
  1880                           	line	223
  1881                           	global	__size_of_lcd_goto
  1882  001D                     	__size_of_lcd_goto	equ	__end_of_lcd_goto-_lcd_goto
  1883                           	
  1884  043E                     _lcd_goto:	
  1885                           	opt	stack 5
  1886                           ; Regs used in _lcd_goto: [wreg+status,2+status,0+pclath+cstack]
  1887                           ;lcd_goto@data stored from wreg
  1888  043E  00FA               	movwf	(lcd_goto@data)
  1889                           	line	224
  1890                           	
  1891  043F                     l916:	
  1892                           ;PR8.c: 224: if(data<16)
  1893  043F  3010               	movlw	(010h)
  1894  0440  027A               	subwf	(lcd_goto@data),w
  1895  0441  1803               	skipnc
  1896  0442  2C44               	goto	u361
  1897  0443  2C45               	goto	u360
  1898  0444                     u361:
  1899  0444  2C4D               	goto	l920
  1900  0445                     u360:
  1901                           	line	226
  1902                           	
  1903  0445                     l918:	
  1904                           ;PR8.c: 225: {
  1905                           ;PR8.c: 226: send_config(0x80+data);
  1906  0445  087A               	movf	(lcd_goto@data),w
  1907  0446  3E80               	addlw	080h
  1908  0447  120A  118A  24C1   	fcall	_send_config
              120A  118A         
  1909                           	line	227
  1910                           ;PR8.c: 227: }
  1911  044C  2C5A               	goto	l109
  1912                           	line	228
  1913                           	
  1914  044D                     l107:	
  1915                           	line	230
  1916                           	
  1917  044D                     l920:	
  1918                           ;PR8.c: 228: else
  1919                           ;PR8.c: 229: {
  1920                           ;PR8.c: 230: data=data-20;
  1921  044D  087A               	movf	(lcd_goto@data),w
  1922  044E  3EEC               	addlw	0ECh
  1923  044F  00F9               	movwf	(??_lcd_goto+0)+0
  1924  0450  0879               	movf	(??_lcd_goto+0)+0,w
  1925  0451  00FA               	movwf	(lcd_goto@data)
  1926                           	line	231
  1927                           	
  1928  0452                     l922:	
  1929                           ;PR8.c: 231: send_config(0xc0+data);
  1930  0452  087A               	movf	(lcd_goto@data),w
  1931  0453  3EC0               	addlw	0C0h
  1932  0454  120A  118A  24C1   	fcall	_send_config
              120A  118A         
  1933  0459  2C5A               	goto	l109
  1934                           	line	232
  1935                           	
  1936  045A                     l108:	
  1937                           	line	233
  1938                           	
  1939  045A                     l109:	
  1940  045A  0008               	return
  1941                           	opt stack 0
  1942                           GLOBAL	__end_of_lcd_goto
  1943  045B                     	__end_of_lcd_goto:
  1944                           	signat	_lcd_goto,4216
  1945                           	global	_send_config
  1946                           
  1947 ;; *************** function _send_config *****************
  1948 ;; Defined at:
  1949 ;;		line 201 in file "PR8.c"
  1950 ;; Parameters:    Size  Location     Type
  1951 ;;  data            1    wreg     unsigned char 
  1952 ;; Auto vars:     Size  Location     Type
  1953 ;;  data            1    8[COMMON] unsigned char 
  1954 ;; Return value:  Size  Location     Type
  1955 ;;		None               void
  1956 ;; Registers used:
  1957 ;;		wreg, status,2, status,0, pclath, cstack
  1958 ;; Tracked objects:
  1959 ;;		On entry : 0/0
  1960 ;;		On exit  : 0/0
  1961 ;;		Unchanged: 0/0
  1962 ;; Data sizes:     COMMON   BANK0   BANK1   BANK3   BANK2
  1963 ;;      Params:         0       0       0       0       0
  1964 ;;      Locals:         1       0       0       0       0
  1965 ;;      Temps:          0       0       0       0       0
  1966 ;;      Totals:         1       0       0       0       0
  1967 ;;Total ram usage:        1 bytes
  1968 ;; Hardware stack levels used:    1
  1969 ;; Hardware stack levels required when called:    1
  1970 ;; This function calls:
  1971 ;;		_delay
  1972 ;; This function is called by:
  1973 ;;		_main
  1974 ;;		_lcd_goto
  1975 ;;		_lcd_clr
  1976 ;; This function uses a non-reentrant model
  1977 ;;
  1978                           psect	text171,local,class=CODE,delta=2,merge=1
  1979                           global __ptext171
  1980  04C1                     __ptext171:
  1981                           psect	text171
  1982                           	file	"PR8.c"
  1983                           	line	201
  1984                           	global	__size_of_send_config
  1985  0026                     	__size_of_send_config	equ	__end_of_send_config-_send_config
  1986                           	
  1987  04C1                     _send_config:	
  1988                           	opt	stack 5
  1989                           ; Regs used in _send_config: [wreg+status,2+status,0+pclath+cstack]
  1990                           ;send_config@data stored from wreg
  1991  04C1  00F8               	movwf	(send_config@data)
  1992                           	line	202
  1993                           	
  1994  04C2                     l884:	
  1995                           ;PR8.c: 202: RC2=0;
  1996  04C2  1283               	bcf	status, 5	;RP0=0, select bank0
  1997  04C3  1303               	bcf	status, 6	;RP1=0, select bank0
  1998  04C4  1107               	bcf	(58/8),(58)&7	;volatile
  1999                           	line	203
  2000                           ;PR8.c: 203: RC3=0;
  2001  04C5  1187               	bcf	(59/8),(59)&7	;volatile
  2002                           	line	204
  2003                           	
  2004  04C6                     l886:	
  2005                           ;PR8.c: 204: PORTB=data;
  2006  04C6  0878               	movf	(send_config@data),w
  2007  04C7  0086               	movwf	(6)	;volatile
  2008                           	line	205
  2009                           	
  2010  04C8                     l888:	
  2011                           ;PR8.c: 205: RC4=1;
  2012  04C8  1607               	bsf	(60/8),(60)&7	;volatile
  2013                           	line	206
  2014                           	
  2015  04C9                     l890:	
  2016                           ;PR8.c: 206: delay(50);
  2017  04C9  3000               	movlw	0
  2018  04CA  00F3               	movwf	(?_delay+3)
  2019  04CB  3000               	movlw	0
  2020  04CC  00F2               	movwf	(?_delay+2)
  2021  04CD  3000               	movlw	0
  2022  04CE  00F1               	movwf	(?_delay+1)
  2023  04CF  3032               	movlw	032h
  2024  04D0  00F0               	movwf	(?_delay)
  2025                           
  2026  04D1  120A  118A  250E   	fcall	_delay
              120A  118A         
  2027                           	line	207
  2028                           	
  2029  04D6                     l892:	
  2030                           ;PR8.c: 207: RC4=0;
  2031  04D6  1283               	bcf	status, 5	;RP0=0, select bank0
  2032  04D7  1303               	bcf	status, 6	;RP1=0, select bank0
  2033  04D8  1207               	bcf	(60/8),(60)&7	;volatile
  2034                           	line	208
  2035                           	
  2036  04D9                     l894:	
  2037                           ;PR8.c: 208: delay(50);
  2038  04D9  3000               	movlw	0
  2039  04DA  00F3               	movwf	(?_delay+3)
  2040  04DB  3000               	movlw	0
  2041  04DC  00F2               	movwf	(?_delay+2)
  2042  04DD  3000               	movlw	0
  2043  04DE  00F1               	movwf	(?_delay+1)
  2044  04DF  3032               	movlw	032h
  2045  04E0  00F0               	movwf	(?_delay)
  2046                           
  2047  04E1  120A  118A  250E   	fcall	_delay
              120A  118A         
  2048                           	line	209
  2049                           	
  2050  04E6                     l101:	
  2051  04E6  0008               	return
  2052                           	opt stack 0
  2053                           GLOBAL	__end_of_send_config
  2054  04E7                     	__end_of_send_config:
  2055                           	signat	_send_config,4216
  2056                           	global	_send_string
  2057                           
  2058 ;; *************** function _send_string *****************
  2059 ;; Defined at:
  2060 ;;		line 242 in file "PR8.c"
  2061 ;; Parameters:    Size  Location     Type
  2062 ;;  s               1    wreg     PTR const unsigned char 
  2063 ;;		 -> STR_11(15), STR_10(5), STR_9(7), STR_8(5), 
  2064 ;;		 -> STR_7(7), STR_6(4), STR_5(17), STR_4(15), 
  2065 ;;		 -> STR_3(14), STR_2(12), STR_1(13), 
  2066 ;; Auto vars:     Size  Location     Type
  2067 ;;  s               1   11[COMMON] PTR const unsigned char 
  2068 ;;		 -> STR_11(15), STR_10(5), STR_9(7), STR_8(5), 
  2069 ;;		 -> STR_7(7), STR_6(4), STR_5(17), STR_4(15), 
  2070 ;;		 -> STR_3(14), STR_2(12), STR_1(13), 
  2071 ;;  i               1   10[COMMON] unsigned char 
  2072 ;; Return value:  Size  Location     Type
  2073 ;;		None               void
  2074 ;; Registers used:
  2075 ;;		wreg, fsr0l, fsr0h, status,2, status,0, pclath, cstack
  2076 ;; Tracked objects:
  2077 ;;		On entry : 0/0
  2078 ;;		On exit  : 0/0
  2079 ;;		Unchanged: 0/0
  2080 ;; Data sizes:     COMMON   BANK0   BANK1   BANK3   BANK2
  2081 ;;      Params:         0       0       0       0       0
  2082 ;;      Locals:         2       0       0       0       0
  2083 ;;      Temps:          1       0       0       0       0
  2084 ;;      Totals:         3       0       0       0       0
  2085 ;;Total ram usage:        3 bytes
  2086 ;; Hardware stack levels used:    1
  2087 ;; Hardware stack levels required when called:    2
  2088 ;; This function calls:
  2089 ;;		_send_char
  2090 ;; This function is called by:
  2091 ;;		_main
  2092 ;; This function uses a non-reentrant model
  2093 ;;
  2094                           psect	text172,local,class=CODE,delta=2,merge=1
  2095                           global __ptext172
  2096  04E7                     __ptext172:
  2097                           psect	text172
  2098                           	file	"PR8.c"
  2099                           	line	242
  2100                           	global	__size_of_send_string
  2101  0027                     	__size_of_send_string	equ	__end_of_send_string-_send_string
  2102                           	
  2103  04E7                     _send_string:	
  2104                           	opt	stack 5
  2105                           ; Regs used in _send_string: [wreg-fsr0h+status,2+status,0+pclath+cstack]
  2106                           ;send_string@s stored from wreg
  2107  04E7  00FB               	movwf	(send_string@s)
  2108                           	line	243
  2109                           	
  2110  04E8                     l924:	
  2111                           ;PR8.c: 243: unsigned char i=0;
  2112  04E8  01FA               	clrf	(send_string@i)
  2113                           	line	244
  2114                           ;PR8.c: 244: while (s && *s)send_char (*s++);
  2115  04E9  2CFB               	goto	l930
  2116                           	
  2117  04EA                     l116:	
  2118                           	
  2119  04EA                     l926:	
  2120  04EA  087B               	movf	(send_string@s),w
  2121  04EB  0084               	movwf	fsr0
  2122  04EC  120A  118A  2003   	fcall	stringdir
              120A  118A         
  2123  04F1  120A  118A  249B   	fcall	_send_char
              120A  118A         
  2124                           	
  2125  04F6                     l928:	
  2126  04F6  3001               	movlw	(01h)
  2127  04F7  00F9               	movwf	(??_send_string+0)+0
  2128  04F8  0879               	movf	(??_send_string+0)+0,w
  2129  04F9  07FB               	addwf	(send_string@s),f
  2130  04FA  2CFB               	goto	l930
  2131                           	
  2132  04FB                     l115:	
  2133                           	
  2134  04FB                     l930:	
  2135  04FB  087B               	movf	(send_string@s),w
  2136  04FC  1D03               	skipz
  2137  04FD  2CFF               	goto	u370
  2138  04FE  2D0D               	goto	l120
  2139  04FF                     u370:
  2140                           	
  2141  04FF                     l932:	
  2142  04FF  087B               	movf	(send_string@s),w
  2143  0500  0084               	movwf	fsr0
  2144  0501  120A  118A  2003   	fcall	stringdir
              120A  118A         
  2145  0506  3800               	iorlw	0
  2146  0507  1D03               	skipz
  2147  0508  2D0A               	goto	u381
  2148  0509  2D0B               	goto	u380
  2149  050A                     u381:
  2150  050A  2CEA               	goto	l926
  2151  050B                     u380:
  2152  050B  2D0D               	goto	l120
  2153                           	
  2154  050C                     l118:	
  2155  050C  2D0D               	goto	l120
  2156                           	
  2157  050D                     l119:	
  2158                           	line	246
  2159                           	
  2160  050D                     l120:	
  2161  050D  0008               	return
  2162                           	opt stack 0
  2163                           GLOBAL	__end_of_send_string
  2164  050E                     	__end_of_send_string:
  2165                           	signat	_send_string,4216
  2166                           	global	_beep
  2167                           
  2168 ;; *************** function _beep *****************
  2169 ;; Defined at:
  2170 ;;		line 257 in file "PR8.c"
  2171 ;; Parameters:    Size  Location     Type
  2172 ;;		None
  2173 ;; Auto vars:     Size  Location     Type
  2174 ;;		None
  2175 ;; Return value:  Size  Location     Type
  2176 ;;		None               void
  2177 ;; Registers used:
  2178 ;;		wreg, status,2, status,0, pclath, cstack
  2179 ;; Tracked objects:
  2180 ;;		On entry : 0/0
  2181 ;;		On exit  : 0/0
  2182 ;;		Unchanged: 0/0
  2183 ;; Data sizes:     COMMON   BANK0   BANK1   BANK3   BANK2
  2184 ;;      Params:         0       0       0       0       0
  2185 ;;      Locals:         0       0       0       0       0
  2186 ;;      Temps:          0       0       0       0       0
  2187 ;;      Totals:         0       0       0       0       0
  2188 ;;Total ram usage:        0 bytes
  2189 ;; Hardware stack levels used:    1
  2190 ;; Hardware stack levels required when called:    1
  2191 ;; This function calls:
  2192 ;;		_delay
  2193 ;; This function is called by:
  2194 ;;		_main
  2195 ;; This function uses a non-reentrant model
  2196 ;;
  2197                           psect	text173,local,class=CODE,delta=2,merge=1
  2198                           global __ptext173
  2199  047A                     __ptext173:
  2200                           psect	text173
  2201                           	file	"PR8.c"
  2202                           	line	257
  2203                           	global	__size_of_beep
  2204  0021                     	__size_of_beep	equ	__end_of_beep-_beep
  2205                           	
  2206  047A                     _beep:	
  2207                           	opt	stack 6
  2208                           ; Regs used in _beep: [wreg+status,2+status,0+pclath+cstack]
  2209                           	line	258
  2210                           	
  2211  047A                     l896:	
  2212                           ;PR8.c: 258: RC0=1;
  2213  047A  1283               	bcf	status, 5	;RP0=0, select bank0
  2214  047B  1303               	bcf	status, 6	;RP1=0, select bank0
  2215  047C  1407               	bsf	(56/8),(56)&7	;volatile
  2216                           	line	259
  2217                           	
  2218  047D                     l898:	
  2219                           ;PR8.c: 259: delay(10000);
  2220  047D  3000               	movlw	0
  2221  047E  00F3               	movwf	(?_delay+3)
  2222  047F  3000               	movlw	0
  2223  0480  00F2               	movwf	(?_delay+2)
  2224  0481  3027               	movlw	027h
  2225  0482  00F1               	movwf	(?_delay+1)
  2226  0483  3010               	movlw	010h
  2227  0484  00F0               	movwf	(?_delay)
  2228                           
  2229  0485  120A  118A  250E   	fcall	_delay
              120A  118A         
  2230                           	line	260
  2231                           	
  2232  048A                     l900:	
  2233                           ;PR8.c: 260: RC0=0;
  2234  048A  1283               	bcf	status, 5	;RP0=0, select bank0
  2235  048B  1303               	bcf	status, 6	;RP1=0, select bank0
  2236  048C  1007               	bcf	(56/8),(56)&7	;volatile
  2237                           	line	261
  2238                           ;PR8.c: 261: delay(10000);
  2239  048D  3000               	movlw	0
  2240  048E  00F3               	movwf	(?_delay+3)
  2241  048F  3000               	movlw	0
  2242  0490  00F2               	movwf	(?_delay+2)
  2243  0491  3027               	movlw	027h
  2244  0492  00F1               	movwf	(?_delay+1)
  2245  0493  3010               	movlw	010h
  2246  0494  00F0               	movwf	(?_delay)
  2247                           
  2248  0495  120A  118A  250E   	fcall	_delay
              120A  118A         
  2249                           	line	262
  2250                           	
  2251  049A                     l129:	
  2252  049A  0008               	return
  2253                           	opt stack 0
  2254                           GLOBAL	__end_of_beep
  2255  049B                     	__end_of_beep:
  2256                           	signat	_beep,88
  2257                           	global	_uart_rec
  2258                           
  2259 ;; *************** function _uart_rec *****************
  2260 ;; Defined at:
  2261 ;;		line 249 in file "PR8.c"
  2262 ;; Parameters:    Size  Location     Type
  2263 ;;		None
  2264 ;; Auto vars:     Size  Location     Type
  2265 ;;  rec_data        1    1[COMMON] unsigned char 
  2266 ;; Return value:  Size  Location     Type
  2267 ;;                  1    wreg      unsigned char 
  2268 ;; Registers used:
  2269 ;;		wreg
  2270 ;; Tracked objects:
  2271 ;;		On entry : 0/0
  2272 ;;		On exit  : 0/0
  2273 ;;		Unchanged: 0/0
  2274 ;; Data sizes:     COMMON   BANK0   BANK1   BANK3   BANK2
  2275 ;;      Params:         0       0       0       0       0
  2276 ;;      Locals:         1       0       0       0       0
  2277 ;;      Temps:          1       0       0       0       0
  2278 ;;      Totals:         2       0       0       0       0
  2279 ;;Total ram usage:        2 bytes
  2280 ;; Hardware stack levels used:    1
  2281 ;; This function calls:
  2282 ;;		Nothing
  2283 ;; This function is called by:
  2284 ;;		_main
  2285 ;; This function uses a non-reentrant model
  2286 ;;
  2287                           psect	text174,local,class=CODE,delta=2,merge=1
  2288                           global __ptext174
  2289  03E0                     __ptext174:
  2290                           psect	text174
  2291                           	file	"PR8.c"
  2292                           	line	249
  2293                           	global	__size_of_uart_rec
  2294  000F                     	__size_of_uart_rec	equ	__end_of_uart_rec-_uart_rec
  2295                           	
  2296  03E0                     _uart_rec:	
  2297                           	opt	stack 7
  2298                           ; Regs used in _uart_rec: [wreg]
  2299                           	line	251
  2300                           	
  2301  03E0                     l878:	
  2302                           ;PR8.c: 250: unsigned char rec_data;
  2303                           ;PR8.c: 251: while(RCIF==0);
  2304  03E0  2BE1               	goto	l123
  2305                           	
  2306  03E1                     l124:	
  2307                           	
  2308  03E1                     l123:	
  2309  03E1  1283               	bcf	status, 5	;RP0=0, select bank0
  2310  03E2  1303               	bcf	status, 6	;RP1=0, select bank0
  2311  03E3  1E8C               	btfss	(101/8),(101)&7	;volatile
  2312  03E4  2BE6               	goto	u351
  2313  03E5  2BE7               	goto	u350
  2314  03E6                     u351:
  2315  03E6  2BE1               	goto	l123
  2316  03E7                     u350:
  2317  03E7  2BE8               	goto	l880
  2318                           	
  2319  03E8                     l125:	
  2320                           	line	252
  2321                           	
  2322  03E8                     l880:	
  2323                           ;PR8.c: 252: rec_data = RCREG;
  2324  03E8  081A               	movf	(26),w	;volatile
  2325  03E9  00F0               	movwf	(??_uart_rec+0)+0
  2326  03EA  0870               	movf	(??_uart_rec+0)+0,w
  2327  03EB  00F1               	movwf	(uart_rec@rec_data)
  2328                           	line	253
  2329                           ;PR8.c: 253: return rec_data;
  2330  03EC  0871               	movf	(uart_rec@rec_data),w
  2331  03ED  2BEE               	goto	l126
  2332                           	
  2333  03EE                     l882:	
  2334                           	line	254
  2335                           	
  2336  03EE                     l126:	
  2337  03EE  0008               	return
  2338                           	opt stack 0
  2339                           GLOBAL	__end_of_uart_rec
  2340  03EF                     	__end_of_uart_rec:
  2341                           	signat	_uart_rec,89
  2342                           	global	_send_char
  2343                           
  2344 ;; *************** function _send_char *****************
  2345 ;; Defined at:
  2346 ;;		line 212 in file "PR8.c"
  2347 ;; Parameters:    Size  Location     Type
  2348 ;;  data            1    wreg     unsigned char 
  2349 ;; Auto vars:     Size  Location     Type
  2350 ;;  data            1    8[COMMON] unsigned char 
  2351 ;; Return value:  Size  Location     Type
  2352 ;;		None               void
  2353 ;; Registers used:
  2354 ;;		wreg, status,2, status,0, pclath, cstack
  2355 ;; Tracked objects:
  2356 ;;		On entry : 0/0
  2357 ;;		On exit  : 0/0
  2358 ;;		Unchanged: 0/0
  2359 ;; Data sizes:     COMMON   BANK0   BANK1   BANK3   BANK2
  2360 ;;      Params:         0       0       0       0       0
  2361 ;;      Locals:         1       0       0       0       0
  2362 ;;      Temps:          0       0       0       0       0
  2363 ;;      Totals:         1       0       0       0       0
  2364 ;;Total ram usage:        1 bytes
  2365 ;; Hardware stack levels used:    1
  2366 ;; Hardware stack levels required when called:    1
  2367 ;; This function calls:
  2368 ;;		_delay
  2369 ;; This function is called by:
  2370 ;;		_main
  2371 ;;		_send_string
  2372 ;; This function uses a non-reentrant model
  2373 ;;
  2374                           psect	text175,local,class=CODE,delta=2,merge=1
  2375                           global __ptext175
  2376  049B                     __ptext175:
  2377                           psect	text175
  2378                           	file	"PR8.c"
  2379                           	line	212
  2380                           	global	__size_of_send_char
  2381  0026                     	__size_of_send_char	equ	__end_of_send_char-_send_char
  2382                           	
  2383  049B                     _send_char:	
  2384                           	opt	stack 6
  2385                           ; Regs used in _send_char: [wreg+status,2+status,0+pclath+cstack]
  2386                           ;send_char@data stored from wreg
  2387  049B  00F8               	movwf	(send_char@data)
  2388                           	line	213
  2389                           	
  2390  049C                     l902:	
  2391                           ;PR8.c: 213: RC2=0;
  2392  049C  1283               	bcf	status, 5	;RP0=0, select bank0
  2393  049D  1303               	bcf	status, 6	;RP1=0, select bank0
  2394  049E  1107               	bcf	(58/8),(58)&7	;volatile
  2395                           	line	214
  2396                           ;PR8.c: 214: RC3=1;
  2397  049F  1587               	bsf	(59/8),(59)&7	;volatile
  2398                           	line	215
  2399                           	
  2400  04A0                     l904:	
  2401                           ;PR8.c: 215: PORTB=data;
  2402  04A0  0878               	movf	(send_char@data),w
  2403  04A1  0086               	movwf	(6)	;volatile
  2404                           	line	216
  2405                           	
  2406  04A2                     l906:	
  2407                           ;PR8.c: 216: RC4=1;
  2408  04A2  1607               	bsf	(60/8),(60)&7	;volatile
  2409                           	line	217
  2410                           	
  2411  04A3                     l908:	
  2412                           ;PR8.c: 217: delay(10);
  2413  04A3  3000               	movlw	0
  2414  04A4  00F3               	movwf	(?_delay+3)
  2415  04A5  3000               	movlw	0
  2416  04A6  00F2               	movwf	(?_delay+2)
  2417  04A7  3000               	movlw	0
  2418  04A8  00F1               	movwf	(?_delay+1)
  2419  04A9  300A               	movlw	0Ah
  2420  04AA  00F0               	movwf	(?_delay)
  2421                           
  2422  04AB  120A  118A  250E   	fcall	_delay
              120A  118A         
  2423                           	line	218
  2424                           	
  2425  04B0                     l910:	
  2426                           ;PR8.c: 218: RC4=0;
  2427  04B0  1283               	bcf	status, 5	;RP0=0, select bank0
  2428  04B1  1303               	bcf	status, 6	;RP1=0, select bank0
  2429  04B2  1207               	bcf	(60/8),(60)&7	;volatile
  2430                           	line	219
  2431                           	
  2432  04B3                     l912:	
  2433                           ;PR8.c: 219: delay(10);
  2434  04B3  3000               	movlw	0
  2435  04B4  00F3               	movwf	(?_delay+3)
  2436  04B5  3000               	movlw	0
  2437  04B6  00F2               	movwf	(?_delay+2)
  2438  04B7  3000               	movlw	0
  2439  04B8  00F1               	movwf	(?_delay+1)
  2440  04B9  300A               	movlw	0Ah
  2441  04BA  00F0               	movwf	(?_delay)
  2442                           
  2443  04BB  120A  118A  250E   	fcall	_delay
              120A  118A         
  2444                           	line	220
  2445                           	
  2446  04C0                     l104:	
  2447  04C0  0008               	return
  2448                           	opt stack 0
  2449                           GLOBAL	__end_of_send_char
  2450  04C1                     	__end_of_send_char:
  2451                           	signat	_send_char,4216
  2452                           	global	_delay
  2453                           
  2454 ;; *************** function _delay *****************
  2455 ;; Defined at:
  2456 ;;		line 196 in file "PR8.c"
  2457 ;; Parameters:    Size  Location     Type
  2458 ;;  data            4    0[COMMON] unsigned long 
  2459 ;; Auto vars:     Size  Location     Type
  2460 ;;		None
  2461 ;; Return value:  Size  Location     Type
  2462 ;;		None               void
  2463 ;; Registers used:
  2464 ;;		wreg
  2465 ;; Tracked objects:
  2466 ;;		On entry : 0/0
  2467 ;;		On exit  : 0/0
  2468 ;;		Unchanged: 0/0
  2469 ;; Data sizes:     COMMON   BANK0   BANK1   BANK3   BANK2
  2470 ;;      Params:         4       0       0       0       0
  2471 ;;      Locals:         0       0       0       0       0
  2472 ;;      Temps:          4       0       0       0       0
  2473 ;;      Totals:         8       0       0       0       0
  2474 ;;Total ram usage:        8 bytes
  2475 ;; Hardware stack levels used:    1
  2476 ;; This function calls:
  2477 ;;		Nothing
  2478 ;; This function is called by:
  2479 ;;		_main
  2480 ;;		_send_config
  2481 ;;		_send_char
  2482 ;;		_lcd_clr
  2483 ;;		_beep
  2484 ;; This function uses a non-reentrant model
  2485 ;;
  2486                           psect	text176,local,class=CODE,delta=2,merge=1
  2487                           global __ptext176
  2488  050E                     __ptext176:
  2489                           psect	text176
  2490                           	file	"PR8.c"
  2491                           	line	196
  2492                           	global	__size_of_delay
  2493  0030                     	__size_of_delay	equ	__end_of_delay-_delay
  2494                           	
  2495  050E                     _delay:	
  2496                           	opt	stack 6
  2497                           ; Regs used in _delay: [wreg]
  2498                           	line	197
  2499                           	
  2500  050E                     l872:	
  2501                           ;PR8.c: 197: for( ;data>0;data-=1);
  2502  050E  0873               	movf	(delay@data+3),w
  2503  050F  0472               	iorwf	(delay@data+2),w
  2504  0510  0471               	iorwf	(delay@data+1),w
  2505  0511  0470               	iorwf	(delay@data),w
  2506  0512  1D03               	skipz
  2507  0513  2D15               	goto	u321
  2508  0514  2D16               	goto	u320
  2509  0515                     u321:
  2510  0515  2D18               	goto	l876
  2511  0516                     u320:
  2512  0516  2D3D               	goto	l98
  2513                           	
  2514  0517                     l874:	
  2515  0517  2D3D               	goto	l98
  2516                           	
  2517  0518                     l96:	
  2518                           	
  2519  0518                     l876:	
  2520  0518  3001               	movlw	01h
  2521  0519  00F4               	movwf	((??_delay+0)+0)
  2522  051A  3000               	movlw	0
  2523  051B  00F5               	movwf	((??_delay+0)+0+1)
  2524  051C  3000               	movlw	0
  2525  051D  00F6               	movwf	((??_delay+0)+0+2)
  2526  051E  3000               	movlw	0
  2527  051F  00F7               	movwf	((??_delay+0)+0+3)
  2528  0520  0874               	movf	0+(??_delay+0)+0,w
  2529  0521  02F0               	subwf	(delay@data),f
  2530  0522  0875               	movf	1+(??_delay+0)+0,w
  2531  0523  1C03               	skipc
  2532  0524  0F75               	incfsz	1+(??_delay+0)+0,w
  2533  0525  2D27               	goto	u335
  2534  0526  2D28               	goto	u336
  2535  0527                     u335:
  2536  0527  02F1               	subwf	(delay@data+1),f
  2537  0528                     u336:
  2538  0528  0876               	movf	2+(??_delay+0)+0,w
  2539  0529  1C03               	skipc
  2540  052A  0F76               	incfsz	2+(??_delay+0)+0,w
  2541  052B  2D2D               	goto	u337
  2542  052C  2D2E               	goto	u338
  2543  052D                     u337:
  2544  052D  02F2               	subwf	(delay@data+2),f
  2545  052E                     u338:
  2546  052E  0877               	movf	3+(??_delay+0)+0,w
  2547  052F  1C03               	skipc
  2548  0530  0F77               	incfsz	3+(??_delay+0)+0,w
  2549  0531  2D33               	goto	u339
  2550  0532  2D34               	goto	u330
  2551  0533                     u339:
  2552  0533  02F3               	subwf	(delay@data+3),f
  2553  0534                     u330:
  2554                           
  2555  0534  0873               	movf	(delay@data+3),w
  2556  0535  0472               	iorwf	(delay@data+2),w
  2557  0536  0471               	iorwf	(delay@data+1),w
  2558  0537  0470               	iorwf	(delay@data),w
  2559  0538  1D03               	skipz
  2560  0539  2D3B               	goto	u341
  2561  053A  2D3C               	goto	u340
  2562  053B                     u341:
  2563  053B  2D18               	goto	l876
  2564  053C                     u340:
  2565  053C  2D3D               	goto	l98
  2566                           	
  2567  053D                     l97:	
  2568                           	line	198
  2569                           	
  2570  053D                     l98:	
  2571  053D  0008               	return
  2572                           	opt stack 0
  2573                           GLOBAL	__end_of_delay
  2574  053E                     	__end_of_delay:
  2575                           	signat	_delay,4216
  2576                           psect	text177,local,class=CODE,delta=2,merge=1
  2577                           global __ptext177
  2578  0000                     __ptext177:
  2579                           	global	btemp
  2580  007E                     	btemp set 07Eh
  2581                           
  2582                           	DABS	1,126,2	;btemp
  2583                           	global	wtemp0
  2584  007E                     	wtemp0 set btemp


Data Sizes:
    Strings     102
    Constant    0
    Data        40
    BSS         0
    Persistent  0
    Stack       0

Auto Spaces:
    Space          Size  Autos    Used
    COMMON           14     12      12
    BANK0            80     59      79
    BANK1            80      0      20
    BANK3            96      0       0
    BANK2            96      0       0

Pointer List with Targets:

    send_string@s	PTR const unsigned char  size(1) Largest target is 17
		 -> STR_11(CODE[15]), STR_10(CODE[5]), STR_9(CODE[7]), STR_8(CODE[5]), 
		 -> STR_7(CODE[7]), STR_6(CODE[4]), STR_5(CODE[17]), STR_4(CODE[15]), 
		 -> STR_3(CODE[14]), STR_2(CODE[12]), STR_1(CODE[13]), 


Critical Paths under _main in COMMON

    _main->_send_string
    _lcd_clr->_send_config
    _lcd_goto->_send_config
    _send_config->_delay
    _send_string->_send_char
    _beep->_delay
    _send_char->_delay

Critical Paths under _main in BANK0

    None.

Critical Paths under _main in BANK1

    None.

Critical Paths under _main in BANK3

    None.

Critical Paths under _main in BANK2

    None.

Call Graph Tables:

 ---------------------------------------------------------------------------------
 (Depth) Function   	        Calls       Base Space   Used Autos Params    Refs
 ---------------------------------------------------------------------------------
 (0) _main                                                59    59      0    1546
                                              0 BANK0     59    59      0
                        _send_config
                            _lcd_clr
                           _lcd_goto
                        _send_string
                               _beep
                              _delay
                           _uart_rec
                          _send_char
 ---------------------------------------------------------------------------------
 (1) _lcd_clr                                              0     0      0     112
                        _send_config
                              _delay
 ---------------------------------------------------------------------------------
 (1) _lcd_goto                                             2     2      0     156
                                              9 COMMON     2     2      0
                        _send_config
 ---------------------------------------------------------------------------------
 (2) _send_config                                          1     1      0      67
                                              8 COMMON     1     1      0
                              _delay
 ---------------------------------------------------------------------------------
 (1) _send_string                                          3     3      0     135
                                              9 COMMON     3     3      0
                          _send_char
 ---------------------------------------------------------------------------------
 (1) _beep                                                 0     0      0      45
                              _delay
 ---------------------------------------------------------------------------------
 (1) _uart_rec                                             2     2      0      23
                                              0 COMMON     2     2      0
 ---------------------------------------------------------------------------------
 (1) _send_char                                            1     1      0      67
                                              8 COMMON     1     1      0
                              _delay
 ---------------------------------------------------------------------------------
 (2) _delay                                                8     4      4      45
                                              0 COMMON     8     4      4
 ---------------------------------------------------------------------------------
 Estimated maximum stack depth 2
 ---------------------------------------------------------------------------------

 Call Graph Graphs:

 _main (ROOT)
   _send_config
     _delay
   _lcd_clr
     _send_config
       _delay
     _delay
   _lcd_goto
     _send_config
       _delay
   _send_string
     _send_char
       _delay
   _beep
     _delay
   _delay
   _uart_rec
   _send_char
     _delay

 Address spaces:
Name               Size   Autos  Total    Cost      Usage
BANK3               60      0       0       9        0.0%
BITBANK3            60      0       0       8        0.0%
SFR3                 0      0       0       4        0.0%
BITSFR3              0      0       0       4        0.0%
BANK2               60      0       0      11        0.0%
BITBANK2            60      0       0      10        0.0%
SFR2                 0      0       0       5        0.0%
BITSFR2              0      0       0       5        0.0%
BANK1               50      0      14       7       25.0%
BITBANK1            50      0       0       6        0.0%
SFR1                 0      0       0       2        0.0%
BITSFR1              0      0       0       2        0.0%
BANK0               50     3B      4F       5       98.8%
BITBANK0            50      0       0       4        0.0%
SFR0                 0      0       0       1        0.0%
BITSFR0              0      0       0       1        0.0%
COMMON               E      C       C       1       85.7%
BITCOMMON            E      0       0       0        0.0%
CODE                 0      0       0       0        0.0%
DATA                 0      0      72      12        0.0%
ABS                  0      0      6F       3        0.0%
NULL                 0      0       0       0        0.0%
STACK                0      0       3       2        0.0%
EEDATA             100      0       0       0        0.0%


HI-TECH Software PICC Macro Assembler V1.00 build 12136 
Symbol Table                                                                                   Wed Jun 27 13:00:16 2012

                   pc 0002                    l70 0680                    l71 0694                    l80 0718  
                  l72 06A0                    l81 072F                    l73 06BF                    l65 05FB  
                  l82 07EA                    l90 07C8                    l74 06B4                    l66 0626  
                  l91 07FC                    l83 0735                    l75 06C9                    l67 063E  
                  l92 07FD                    l76 07E0                    l84 074D                    l68 066C  
                  l93 07FD                    l85 0764                    l77 06D2                    l69 068B  
                  l86 077B                    l78 06EA                    l87 0792                    l79 0701  
                  l96 0518                    l88 0798                    l97 053D                    l89 07B1  
                  l98 053D                    fsr 0004                   l101 04E6                   l104 04C0  
                 l120 050D                   l112 0415                   l123 03E1                   l115 04FB  
                 l107 044D                   l124 03E1                   l116 04EA                   l108 045A  
                 l125 03E8                   l109 045A                   l126 03EE                   l118 050C  
                 l119 050D                   l129 049A                   l900 048A                   l910 04B0  
                 l902 049C                   l912 04B3                   l904 04A0                   l920 044D  
                 l906 04A2                   l930 04FB                   l922 0452                   l914 0402  
                 l908 04A3                   l932 04FF                   l924 04E8                   l916 043F  
                 l940 0599                   l926 04EA                   l918 0445                   l950 05A2  
                 l942 059B                   l934 053E                   l872 050E                   l880 03E8  
                 l928 04F6                   l960 05B9                   l952 05A3                   l944 059D  
                 l936 0594                   l874 0517                   l882 03EE                   l890 04C9  
                 l970 05CA                   l962 05BF                   l954 05A7                   l946 059E  
                 l938 0597                   l876 0518                   l892 04D6                   l884 04C2  
                 l980 05E2                   l972 05CB                   l964 05C5                   l956 05AD  
                 l948 059F                   l878 03E0                   l894 04D9                   l886 04C6  
                 l990 0603                   l982 05E8                   l974 05D0                   l966 05C8  
                 l958 05B3                   l896 047A                   l888 04C8                   l992 0609  
                 l984 05ED                   l976 05D6                   l968 05C9                   l898 047D  
                 l994 060F                   l986 05FB                   l978 05DC                   l996 0615  
                 l988 05FE                   l998 061B                   _RA2 002A                   _RA3 002B  
                 _RC0 0038                   _RC1 0039                   _RC2 003A                   _RC3 003B  
                 _RC4 003C                   u320 0516                   u400 055D                   u321 0515  
                 u330 0534                   u410 0572                   u340 053C                   u500 06B0  
                 u420 0587                   u341 053B                   u501 06AF                   u350 03E7  
                 u510 06BE                   u430 0624                   u335 0527                   u351 03E6  
                 u511 06BD                   u431 0623                   u336 0528                   u360 0445  
                 u600 0791                   u520 06C4                   u440 063E                   u337 052D  
                 u361 0444                   u601 0790                   u521 06C3                   u441 063D  
                 u338 052E                   u370 04FF                   u610 07AF                   u530 06E8  
                 u450 066A                   u339 0533                   u611 07AE                   u531 06E7  
                 u451 0669                   u380 050B                   u620 07C7                   u540 0700  
                 u460 067C                   u381 050A                   u621 07C6                   u541 06FF  
                 u461 067B                   u550 0716                   u470 068A                   u390 0548  
                 u551 0715                   u471 0689                   u560 072E                   u480 0690  
                 u561 072D                   u481 068F                   u570 074B                   u490 069E  
                 u571 074A                   u491 069D                   u580 0763                   u581 0762  
                 u590 0779                   u591 0778                   fsr0 0004                   indf 0000  
     send_config@data 0078                  l1000 061E                  l1010 063F                  l1002 0625  
                l1100 074D                  l1020 0661                  l1012 064A                  l1004 0626  
                l1110 0770                  l1102 0757                  l1030 0680                  l1022 0664  
                l1014 0650                  l1006 0634                  l1120 078B                  l1112 0773  
                l1104 075D                  l1040 069F                  l1024 066B                  l1032 068B  
                l1016 065D                  l1008 0638                  l1130 07A9                  l1114 077A  
                l1122 0792                  l1106 0764                  l1050 06C4                  l1042 06A0  
                l1034 0690                  l1026 066C                  l1018 0660                  l1132 07B0  
                l1140 07C8                  l1124 0798                  l1116 077B                  l1108 076A  
                l1060 06DF                  l1052 06C9                  l1044 06B0                  l1036 0694  
                l1028 067C                  l1142 07CE                  l1134 07B1                  l1126 079E  
                l1118 0785                  l1070 06FA                  l1062 06E2                  l1150 07E0  
                l1054 06CE                  l1046 06B4                  l1038 0698                  l1144 07D4  
                l1136 07BB                  l1128 07A4                  l1152 07EA                  l1080 0717  
                l1064 06E9                  l1072 0701                  l1056 06D3                  l1048 06BF  
                l1154 07F7                  l1146 07D9                  l1138 07C1                  l1090 0736  
                l1082 0718                  l1074 0707                  l1066 06EA                  l1058 06D9  
                l1156 07FA                  l1148 07DF                  l1092 073C                  l1084 0722  
                l1076 070D                  l1068 06F4                  l1094 0742                  l1086 0728  
                l1078 0710                  l1096 0745                  l1088 072F                  l1098 074C  
                STR_1 0046                  STR_2 0053                  STR_3 0038                  STR_4 001A  
                STR_5 0009                  STR_6 006B                  STR_7 005F                  STR_8 0066  
                STR_9 005F                  _BRGH 04C2                  _CREN 00C4                  _RCIF 0065  
                _SPEN 00C7                  _TXEN 04C5                  _beep 047A                  _main 053E  
                btemp 007E          lcd_goto@data 007A                  start 0000          main@database 0058  
               ?_beep 0070                 ?_main 0070                 STR_10 0066                 STR_11 0029  
               _RCREG 001A                 _SPBRG 0099                 _PORTB 0006                 _TRISA 0085  
               _TRISB 0086                 _TRISC 0087       __end_of_lcd_clr 0416                 _delay 050E  
               main@i 005A                 pclath 000A                 status 0003                 wtemp0 007E  
        __end_of_beep 049B          __end_of_main 0800                ??_beep 0078                ??_main 0020  
              ?_delay 0070          ?_send_config 0070                _ADCON1 009F          ?_send_string 0070  
    __end_of_lcd_goto 045B             ??_lcd_clr 0079      __end_of_uart_rec 03EF        __pcstackCOMMON 0070  
        __pidataBANK0 042A          __pidataBANK1 0416         __end_of_delay 053E               ??_delay 0074  
          __pmaintext 053E    __size_of_send_char 0026             ?_lcd_goto 0070  __size_of_send_config 0026  
__size_of_send_string 0027             ?_uart_rec 0070               _lcd_clr 0402            ??_lcd_goto 0079  
end_of_initialization 0476      uart_rec@rec_data 0071     __end_of_send_char 04C1               init_ram 03F3  
          ??_uart_rec 0070         send_char@data 0078            main@user_1 0024            main@user_2 002E  
 start_initialization 045B           __pdataBANK0 005B           __pdataBANK1 00A0         __pcstackBANK0 0020  
   __size_of_lcd_goto 001D             __ptext170 043E             __ptext171 04C1             __ptext172 04E7  
           __ptext173 047A             __ptext174 03E0             __ptext175 049B             __ptext176 050E  
           __ptext177 0000             __ptext169 0402     __size_of_uart_rec 000F             __pstrings 0003  
            ?_lcd_clr 0070         ??_send_config 0078        __size_of_delay 0030             delay@data 0070  
       ??_send_string 0079             _send_char 049B             main@F1151 0065             main@F1153 00A0  
           main@F1155 00AA             main@F1149 005B           __stringbase 0008   __end_of_send_config 04E7  
          ?_send_char 0070          send_string@i 007A          send_string@s 007B   __end_of_send_string 050E  
           init_fetch 03EF      __size_of_lcd_clr 0014              _lcd_goto 043E         __size_of_beep 0021  
       __size_of_main 02C2              _uart_rec 03E0              main@id_1 0038              main@id_2 0042  
            main@data 004C              main@temp 0059           _send_config 04C1           _send_string 04E7  
         ??_send_char 0078             stringcode 0003              stringdir 0003              stringtab 0003  
